
TSL.elf:     file format elf32-avr

Sections:
Idx Name          Size      VMA       LMA       File off  Algn
  0 .text         000015a0  00000000  00000000  00000074  2**1
                  CONTENTS, ALLOC, LOAD, READONLY, CODE
  1 .data         000000be  00802000  000015a0  00001614  2**0
                  CONTENTS, ALLOC, LOAD, DATA
  2 .comment      00000060  00000000  00000000  000016d2  2**0
                  CONTENTS, READONLY
  3 .note.gnu.avr.deviceinfo 00000040  00000000  00000000  00001734  2**2
                  CONTENTS, READONLY
  4 .debug_aranges 00000080  00000000  00000000  00001778  2**3
                  CONTENTS, READONLY, DEBUGGING
  5 .debug_info   00002340  00000000  00000000  000017f8  2**0
                  CONTENTS, READONLY, DEBUGGING
  6 .debug_abbrev 00001d6a  00000000  00000000  00003b38  2**0
                  CONTENTS, READONLY, DEBUGGING
  7 .debug_line   000005de  00000000  00000000  000058a2  2**0
                  CONTENTS, READONLY, DEBUGGING
  8 .debug_frame  0000004c  00000000  00000000  00005e80  2**2
                  CONTENTS, READONLY, DEBUGGING
  9 .debug_str    0000197a  00000000  00000000  00005ecc  2**0
                  CONTENTS, READONLY, DEBUGGING
 10 .debug_loc    000001d1  00000000  00000000  00007846  2**0
                  CONTENTS, READONLY, DEBUGGING
 11 .debug_ranges 00000040  00000000  00000000  00007a17  2**0
                  CONTENTS, READONLY, DEBUGGING

Disassembly of section .text:

00000000 <__vectors>:
       0:	0c 94 7e 00 	jmp	0xfc	; 0xfc <__ctors_end>
       4:	0c 94 97 00 	jmp	0x12e	; 0x12e <__bad_interrupt>
       8:	0c 94 20 03 	jmp	0x640	; 0x640 <__vector_2>
       c:	0c 94 97 00 	jmp	0x12e	; 0x12e <__bad_interrupt>
      10:	0c 94 97 00 	jmp	0x12e	; 0x12e <__bad_interrupt>
      14:	0c 94 97 00 	jmp	0x12e	; 0x12e <__bad_interrupt>
      18:	0c 94 97 00 	jmp	0x12e	; 0x12e <__bad_interrupt>
      1c:	0c 94 97 00 	jmp	0x12e	; 0x12e <__bad_interrupt>
      20:	0c 94 97 00 	jmp	0x12e	; 0x12e <__bad_interrupt>
      24:	0c 94 97 00 	jmp	0x12e	; 0x12e <__bad_interrupt>
      28:	0c 94 97 00 	jmp	0x12e	; 0x12e <__bad_interrupt>
      2c:	0c 94 97 00 	jmp	0x12e	; 0x12e <__bad_interrupt>
      30:	0c 94 97 00 	jmp	0x12e	; 0x12e <__bad_interrupt>
      34:	0c 94 97 00 	jmp	0x12e	; 0x12e <__bad_interrupt>
      38:	0c 94 97 00 	jmp	0x12e	; 0x12e <__bad_interrupt>
      3c:	0c 94 97 00 	jmp	0x12e	; 0x12e <__bad_interrupt>
      40:	0c 94 97 00 	jmp	0x12e	; 0x12e <__bad_interrupt>
      44:	0c 94 97 00 	jmp	0x12e	; 0x12e <__bad_interrupt>
      48:	0c 94 97 00 	jmp	0x12e	; 0x12e <__bad_interrupt>
      4c:	0c 94 97 00 	jmp	0x12e	; 0x12e <__bad_interrupt>
      50:	0c 94 97 00 	jmp	0x12e	; 0x12e <__bad_interrupt>
      54:	0c 94 97 00 	jmp	0x12e	; 0x12e <__bad_interrupt>
      58:	0c 94 97 00 	jmp	0x12e	; 0x12e <__bad_interrupt>
      5c:	0c 94 97 00 	jmp	0x12e	; 0x12e <__bad_interrupt>
      60:	0c 94 97 00 	jmp	0x12e	; 0x12e <__bad_interrupt>
      64:	0c 94 97 00 	jmp	0x12e	; 0x12e <__bad_interrupt>
      68:	0c 94 97 00 	jmp	0x12e	; 0x12e <__bad_interrupt>
      6c:	0c 94 97 00 	jmp	0x12e	; 0x12e <__bad_interrupt>
      70:	0c 94 97 00 	jmp	0x12e	; 0x12e <__bad_interrupt>
      74:	0c 94 97 00 	jmp	0x12e	; 0x12e <__bad_interrupt>
      78:	0c 94 97 00 	jmp	0x12e	; 0x12e <__bad_interrupt>
      7c:	0c 94 97 00 	jmp	0x12e	; 0x12e <__bad_interrupt>
      80:	0c 94 97 00 	jmp	0x12e	; 0x12e <__bad_interrupt>
      84:	0c 94 97 00 	jmp	0x12e	; 0x12e <__bad_interrupt>
      88:	0c 94 97 00 	jmp	0x12e	; 0x12e <__bad_interrupt>
      8c:	0c 94 97 00 	jmp	0x12e	; 0x12e <__bad_interrupt>
      90:	0c 94 97 00 	jmp	0x12e	; 0x12e <__bad_interrupt>
      94:	0c 94 97 00 	jmp	0x12e	; 0x12e <__bad_interrupt>
      98:	0c 94 97 00 	jmp	0x12e	; 0x12e <__bad_interrupt>
      9c:	0c 94 04 03 	jmp	0x608	; 0x608 <__vector_39>
      a0:	0c 94 97 00 	jmp	0x12e	; 0x12e <__bad_interrupt>
      a4:	0c 94 97 00 	jmp	0x12e	; 0x12e <__bad_interrupt>
      a8:	0c 94 97 00 	jmp	0x12e	; 0x12e <__bad_interrupt>
      ac:	0c 94 97 00 	jmp	0x12e	; 0x12e <__bad_interrupt>
      b0:	0c 94 97 00 	jmp	0x12e	; 0x12e <__bad_interrupt>
      b4:	0c 94 97 00 	jmp	0x12e	; 0x12e <__bad_interrupt>
      b8:	0c 94 97 00 	jmp	0x12e	; 0x12e <__bad_interrupt>
      bc:	0c 94 97 00 	jmp	0x12e	; 0x12e <__bad_interrupt>
      c0:	0c 94 97 00 	jmp	0x12e	; 0x12e <__bad_interrupt>
      c4:	0c 94 97 00 	jmp	0x12e	; 0x12e <__bad_interrupt>
      c8:	0c 94 97 00 	jmp	0x12e	; 0x12e <__bad_interrupt>
      cc:	0c 94 97 00 	jmp	0x12e	; 0x12e <__bad_interrupt>
      d0:	0c 94 97 00 	jmp	0x12e	; 0x12e <__bad_interrupt>
      d4:	0c 94 97 00 	jmp	0x12e	; 0x12e <__bad_interrupt>
      d8:	a6 02       	muls	r26, r22
      da:	a2 02       	muls	r26, r18
      dc:	a6 02       	muls	r26, r22
      de:	a0 02       	muls	r26, r16
      e0:	a6 02       	muls	r26, r22
      e2:	a0 02       	muls	r26, r16
      e4:	a6 02       	muls	r26, r22
      e6:	a6 02       	muls	r26, r22
      e8:	a0 02       	muls	r26, r16
      ea:	a6 02       	muls	r26, r22
      ec:	a0 02       	muls	r26, r16
      ee:	a6 02       	muls	r26, r22

000000f0 <__trampolines_start>:
      f0:	0c 94 a6 02 	jmp	0x54c	; 0x54c <daysInMonth+0x24>
      f4:	0c 94 a0 02 	jmp	0x540	; 0x540 <daysInMonth+0x18>
      f8:	0c 94 a2 02 	jmp	0x544	; 0x544 <daysInMonth+0x1c>

000000fc <__ctors_end>:
      fc:	11 24       	eor	r1, r1
      fe:	1f be       	out	0x3f, r1	; 63
     100:	cf ef       	ldi	r28, 0xFF	; 255
     102:	cd bf       	out	0x3d, r28	; 61
     104:	df e3       	ldi	r29, 0x3F	; 63
     106:	de bf       	out	0x3e, r29	; 62
     108:	00 e0       	ldi	r16, 0x00	; 0
     10a:	0c bf       	out	0x3c, r16	; 60

0000010c <__do_copy_data>:
     10c:	10 e2       	ldi	r17, 0x20	; 32
     10e:	a0 e0       	ldi	r26, 0x00	; 0
     110:	b0 e2       	ldi	r27, 0x20	; 32
     112:	e0 ea       	ldi	r30, 0xA0	; 160
     114:	f5 e1       	ldi	r31, 0x15	; 21
     116:	00 e0       	ldi	r16, 0x00	; 0
     118:	0b bf       	out	0x3b, r16	; 59
     11a:	02 c0       	rjmp	.+4      	; 0x120 <__do_copy_data+0x14>
     11c:	07 90       	elpm	r0, Z+
     11e:	0d 92       	st	X+, r0
     120:	ae 3b       	cpi	r26, 0xBE	; 190
     122:	b1 07       	cpc	r27, r17
     124:	d9 f7       	brne	.-10     	; 0x11c <__do_copy_data+0x10>
     126:	0e 94 47 07 	call	0xe8e	; 0xe8e <main>
     12a:	0c 94 ce 0a 	jmp	0x159c	; 0x159c <_exit>

0000012e <__bad_interrupt>:
     12e:	0c 94 00 00 	jmp	0	; 0x0 <__vectors>

00000132 <lcd_set_pixel>:
     132:	e6 2f       	mov	r30, r22
     134:	e6 95       	lsr	r30
     136:	e6 95       	lsr	r30
     138:	e6 95       	lsr	r30
     13a:	f0 e0       	ldi	r31, 0x00	; 0
     13c:	94 e0       	ldi	r25, 0x04	; 4
     13e:	89 9f       	mul	r24, r25
     140:	e0 0d       	add	r30, r0
     142:	f1 1d       	adc	r31, r1
     144:	11 24       	eor	r1, r1
     146:	e0 5f       	subi	r30, 0xF0	; 240
     148:	f2 4f       	sbci	r31, 0xF2	; 242
     14a:	20 81       	ld	r18, Z
     14c:	67 70       	andi	r22, 0x07	; 7
     14e:	81 e0       	ldi	r24, 0x01	; 1
     150:	90 e0       	ldi	r25, 0x00	; 0
     152:	01 c0       	rjmp	.+2      	; 0x156 <lcd_set_pixel+0x24>
     154:	88 0f       	add	r24, r24
     156:	6a 95       	dec	r22
     158:	ea f7       	brpl	.-6      	; 0x154 <lcd_set_pixel+0x22>
     15a:	82 2b       	or	r24, r18
     15c:	80 83       	st	Z, r24
     15e:	08 95       	ret

00000160 <lcd_clear_pixel>:
     160:	e6 2f       	mov	r30, r22
     162:	e6 95       	lsr	r30
     164:	e6 95       	lsr	r30
     166:	e6 95       	lsr	r30
     168:	f0 e0       	ldi	r31, 0x00	; 0
     16a:	94 e0       	ldi	r25, 0x04	; 4
     16c:	89 9f       	mul	r24, r25
     16e:	e0 0d       	add	r30, r0
     170:	f1 1d       	adc	r31, r1
     172:	11 24       	eor	r1, r1
     174:	e0 5f       	subi	r30, 0xF0	; 240
     176:	f2 4f       	sbci	r31, 0xF2	; 242
     178:	20 81       	ld	r18, Z
     17a:	67 70       	andi	r22, 0x07	; 7
     17c:	81 e0       	ldi	r24, 0x01	; 1
     17e:	90 e0       	ldi	r25, 0x00	; 0
     180:	01 c0       	rjmp	.+2      	; 0x184 <lcd_clear_pixel+0x24>
     182:	88 0f       	add	r24, r24
     184:	6a 95       	dec	r22
     186:	ea f7       	brpl	.-6      	; 0x182 <lcd_clear_pixel+0x22>
     188:	80 95       	com	r24
     18a:	82 23       	and	r24, r18
     18c:	80 83       	st	Z, r24
     18e:	08 95       	ret

00000190 <digitShow>:
     190:	ef 92       	push	r14
     192:	ff 92       	push	r15
     194:	0f 93       	push	r16
     196:	1f 93       	push	r17
     198:	cf 93       	push	r28
     19a:	df 93       	push	r29
     19c:	e6 2f       	mov	r30, r22
     19e:	f0 e0       	ldi	r31, 0x00	; 0
     1a0:	e0 55       	subi	r30, 0x50	; 80
     1a2:	ff 4d       	sbci	r31, 0xDF	; 223
     1a4:	e0 80       	ld	r14, Z
     1a6:	2e e0       	ldi	r18, 0x0E	; 14
     1a8:	82 9f       	mul	r24, r18
     1aa:	c0 01       	movw	r24, r0
     1ac:	11 24       	eor	r1, r1
     1ae:	ec 01       	movw	r28, r24
     1b0:	c8 5f       	subi	r28, 0xF8	; 248
     1b2:	df 4d       	sbci	r29, 0xDF	; 223
     1b4:	00 e0       	ldi	r16, 0x00	; 0
     1b6:	10 e0       	ldi	r17, 0x00	; 0
     1b8:	f1 2c       	mov	r15, r1
     1ba:	c7 01       	movw	r24, r14
     1bc:	00 2e       	mov	r0, r16
     1be:	02 c0       	rjmp	.+4      	; 0x1c4 <digitShow+0x34>
     1c0:	95 95       	asr	r25
     1c2:	87 95       	ror	r24
     1c4:	0a 94       	dec	r0
     1c6:	e2 f7       	brpl	.-8      	; 0x1c0 <digitShow+0x30>
     1c8:	69 81       	ldd	r22, Y+1	; 0x01
     1ca:	80 ff       	sbrs	r24, 0
     1cc:	04 c0       	rjmp	.+8      	; 0x1d6 <digitShow+0x46>
     1ce:	88 81       	ld	r24, Y
     1d0:	0e 94 99 00 	call	0x132	; 0x132 <lcd_set_pixel>
     1d4:	03 c0       	rjmp	.+6      	; 0x1dc <digitShow+0x4c>
     1d6:	88 81       	ld	r24, Y
     1d8:	0e 94 b0 00 	call	0x160	; 0x160 <lcd_clear_pixel>
     1dc:	0f 5f       	subi	r16, 0xFF	; 255
     1de:	1f 4f       	sbci	r17, 0xFF	; 255
     1e0:	22 96       	adiw	r28, 0x02	; 2
     1e2:	07 30       	cpi	r16, 0x07	; 7
     1e4:	11 05       	cpc	r17, r1
     1e6:	49 f7       	brne	.-46     	; 0x1ba <digitShow+0x2a>
     1e8:	df 91       	pop	r29
     1ea:	cf 91       	pop	r28
     1ec:	1f 91       	pop	r17
     1ee:	0f 91       	pop	r16
     1f0:	ff 90       	pop	r15
     1f2:	ef 90       	pop	r14
     1f4:	08 95       	ret

000001f6 <digitOn>:
     1f6:	ef 92       	push	r14
     1f8:	ff 92       	push	r15
     1fa:	0f 93       	push	r16
     1fc:	1f 93       	push	r17
     1fe:	cf 93       	push	r28
     200:	df 93       	push	r29
     202:	e8 2f       	mov	r30, r24
     204:	f0 e0       	ldi	r31, 0x00	; 0
     206:	e0 55       	subi	r30, 0x50	; 80
     208:	ff 4d       	sbci	r31, 0xDF	; 223
     20a:	e0 80       	ld	r14, Z
     20c:	8e e0       	ldi	r24, 0x0E	; 14
     20e:	68 9f       	mul	r22, r24
     210:	e0 01       	movw	r28, r0
     212:	11 24       	eor	r1, r1
     214:	c8 5f       	subi	r28, 0xF8	; 248
     216:	df 4d       	sbci	r29, 0xDF	; 223
     218:	00 e0       	ldi	r16, 0x00	; 0
     21a:	10 e0       	ldi	r17, 0x00	; 0
     21c:	f1 2c       	mov	r15, r1
     21e:	c7 01       	movw	r24, r14
     220:	00 2e       	mov	r0, r16
     222:	02 c0       	rjmp	.+4      	; 0x228 <digitOn+0x32>
     224:	95 95       	asr	r25
     226:	87 95       	ror	r24
     228:	0a 94       	dec	r0
     22a:	e2 f7       	brpl	.-8      	; 0x224 <digitOn+0x2e>
     22c:	80 ff       	sbrs	r24, 0
     22e:	04 c0       	rjmp	.+8      	; 0x238 <digitOn+0x42>
     230:	69 81       	ldd	r22, Y+1	; 0x01
     232:	88 81       	ld	r24, Y
     234:	0e 94 99 00 	call	0x132	; 0x132 <lcd_set_pixel>
     238:	0f 5f       	subi	r16, 0xFF	; 255
     23a:	1f 4f       	sbci	r17, 0xFF	; 255
     23c:	22 96       	adiw	r28, 0x02	; 2
     23e:	07 30       	cpi	r16, 0x07	; 7
     240:	11 05       	cpc	r17, r1
     242:	69 f7       	brne	.-38     	; 0x21e <digitOn+0x28>
     244:	df 91       	pop	r29
     246:	cf 91       	pop	r28
     248:	1f 91       	pop	r17
     24a:	0f 91       	pop	r16
     24c:	ff 90       	pop	r15
     24e:	ef 90       	pop	r14
     250:	08 95       	ret

00000252 <segmentsOn>:
     252:	ef 92       	push	r14
     254:	ff 92       	push	r15
     256:	0f 93       	push	r16
     258:	1f 93       	push	r17
     25a:	cf 93       	push	r28
     25c:	df 93       	push	r29
     25e:	9e e0       	ldi	r25, 0x0E	; 14
     260:	69 9f       	mul	r22, r25
     262:	e0 01       	movw	r28, r0
     264:	11 24       	eor	r1, r1
     266:	c8 5f       	subi	r28, 0xF8	; 248
     268:	df 4d       	sbci	r29, 0xDF	; 223
     26a:	00 e0       	ldi	r16, 0x00	; 0
     26c:	10 e0       	ldi	r17, 0x00	; 0
     26e:	e8 2e       	mov	r14, r24
     270:	f1 2c       	mov	r15, r1
     272:	c7 01       	movw	r24, r14
     274:	00 2e       	mov	r0, r16
     276:	02 c0       	rjmp	.+4      	; 0x27c <segmentsOn+0x2a>
     278:	95 95       	asr	r25
     27a:	87 95       	ror	r24
     27c:	0a 94       	dec	r0
     27e:	e2 f7       	brpl	.-8      	; 0x278 <segmentsOn+0x26>
     280:	80 ff       	sbrs	r24, 0
     282:	04 c0       	rjmp	.+8      	; 0x28c <segmentsOn+0x3a>
     284:	69 81       	ldd	r22, Y+1	; 0x01
     286:	88 81       	ld	r24, Y
     288:	0e 94 99 00 	call	0x132	; 0x132 <lcd_set_pixel>
     28c:	0f 5f       	subi	r16, 0xFF	; 255
     28e:	1f 4f       	sbci	r17, 0xFF	; 255
     290:	22 96       	adiw	r28, 0x02	; 2
     292:	07 30       	cpi	r16, 0x07	; 7
     294:	11 05       	cpc	r17, r1
     296:	69 f7       	brne	.-38     	; 0x272 <segmentsOn+0x20>
     298:	df 91       	pop	r29
     29a:	cf 91       	pop	r28
     29c:	1f 91       	pop	r17
     29e:	0f 91       	pop	r16
     2a0:	ff 90       	pop	r15
     2a2:	ef 90       	pop	r14
     2a4:	08 95       	ret

000002a6 <showDash>:
     2a6:	68 2f       	mov	r22, r24
     2a8:	80 e4       	ldi	r24, 0x40	; 64
     2aa:	0c 94 29 01 	jmp	0x252	; 0x252 <segmentsOn>

000002ae <showNoTrig>:
     2ae:	6b e0       	ldi	r22, 0x0B	; 11
     2b0:	82 e6       	ldi	r24, 0x62	; 98
     2b2:	0e 94 29 01 	call	0x252	; 0x252 <segmentsOn>
     2b6:	6a e0       	ldi	r22, 0x0A	; 10
     2b8:	83 e6       	ldi	r24, 0x63	; 99
     2ba:	0e 94 29 01 	call	0x252	; 0x252 <segmentsOn>
     2be:	65 e0       	ldi	r22, 0x05	; 5
     2c0:	87 e4       	ldi	r24, 0x47	; 71
     2c2:	0e 94 29 01 	call	0x252	; 0x252 <segmentsOn>
     2c6:	64 e0       	ldi	r22, 0x04	; 4
     2c8:	82 e4       	ldi	r24, 0x42	; 66
     2ca:	0e 94 29 01 	call	0x252	; 0x252 <segmentsOn>
     2ce:	63 e0       	ldi	r22, 0x03	; 3
     2d0:	82 e0       	ldi	r24, 0x02	; 2
     2d2:	0e 94 29 01 	call	0x252	; 0x252 <segmentsOn>
     2d6:	62 e0       	ldi	r22, 0x02	; 2
     2d8:	8f e2       	ldi	r24, 0x2F	; 47
     2da:	0c 94 29 01 	jmp	0x252	; 0x252 <segmentsOn>

000002de <showClocError>:
     2de:	6b e0       	ldi	r22, 0x0B	; 11
     2e0:	83 e4       	ldi	r24, 0x43	; 67
     2e2:	0e 94 29 01 	call	0x252	; 0x252 <segmentsOn>
     2e6:	6a e0       	ldi	r22, 0x0A	; 10
     2e8:	87 e0       	ldi	r24, 0x07	; 7
     2ea:	0e 94 29 01 	call	0x252	; 0x252 <segmentsOn>
     2ee:	69 e0       	ldi	r22, 0x09	; 9
     2f0:	83 e6       	ldi	r24, 0x63	; 99
     2f2:	0e 94 29 01 	call	0x252	; 0x252 <segmentsOn>
     2f6:	68 e0       	ldi	r22, 0x08	; 8
     2f8:	83 e4       	ldi	r24, 0x43	; 67
     2fa:	0e 94 29 01 	call	0x252	; 0x252 <segmentsOn>
     2fe:	65 e0       	ldi	r22, 0x05	; 5
     300:	8f e4       	ldi	r24, 0x4F	; 79
     302:	0e 94 29 01 	call	0x252	; 0x252 <segmentsOn>
     306:	64 e0       	ldi	r22, 0x04	; 4
     308:	82 e4       	ldi	r24, 0x42	; 66
     30a:	0e 94 29 01 	call	0x252	; 0x252 <segmentsOn>
     30e:	63 e0       	ldi	r22, 0x03	; 3
     310:	82 e4       	ldi	r24, 0x42	; 66
     312:	0e 94 29 01 	call	0x252	; 0x252 <segmentsOn>
     316:	62 e0       	ldi	r22, 0x02	; 2
     318:	83 e6       	ldi	r24, 0x63	; 99
     31a:	0e 94 29 01 	call	0x252	; 0x252 <segmentsOn>
     31e:	61 e0       	ldi	r22, 0x01	; 1
     320:	82 e4       	ldi	r24, 0x42	; 66
     322:	0c 94 29 01 	jmp	0x252	; 0x252 <segmentsOn>

00000326 <showEEProError>:
     326:	cf 93       	push	r28
     328:	c8 2f       	mov	r28, r24
     32a:	6b e0       	ldi	r22, 0x0B	; 11
     32c:	8f e4       	ldi	r24, 0x4F	; 79
     32e:	0e 94 29 01 	call	0x252	; 0x252 <segmentsOn>
     332:	6a e0       	ldi	r22, 0x0A	; 10
     334:	8f e4       	ldi	r24, 0x4F	; 79
     336:	0e 94 29 01 	call	0x252	; 0x252 <segmentsOn>
     33a:	69 e0       	ldi	r22, 0x09	; 9
     33c:	8e e5       	ldi	r24, 0x5E	; 94
     33e:	0e 94 29 01 	call	0x252	; 0x252 <segmentsOn>
     342:	68 e0       	ldi	r22, 0x08	; 8
     344:	82 e4       	ldi	r24, 0x42	; 66
     346:	0e 94 29 01 	call	0x252	; 0x252 <segmentsOn>
     34a:	67 e0       	ldi	r22, 0x07	; 7
     34c:	83 e6       	ldi	r24, 0x63	; 99
     34e:	0e 94 29 01 	call	0x252	; 0x252 <segmentsOn>
     352:	65 e0       	ldi	r22, 0x05	; 5
     354:	8f e4       	ldi	r24, 0x4F	; 79
     356:	0e 94 29 01 	call	0x252	; 0x252 <segmentsOn>
     35a:	64 e0       	ldi	r22, 0x04	; 4
     35c:	82 e4       	ldi	r24, 0x42	; 66
     35e:	0e 94 29 01 	call	0x252	; 0x252 <segmentsOn>
     362:	63 e0       	ldi	r22, 0x03	; 3
     364:	82 e4       	ldi	r24, 0x42	; 66
     366:	0e 94 29 01 	call	0x252	; 0x252 <segmentsOn>
     36a:	62 e0       	ldi	r22, 0x02	; 2
     36c:	83 e6       	ldi	r24, 0x63	; 99
     36e:	0e 94 29 01 	call	0x252	; 0x252 <segmentsOn>
     372:	61 e0       	ldi	r22, 0x01	; 1
     374:	82 e4       	ldi	r24, 0x42	; 66
     376:	0e 94 29 01 	call	0x252	; 0x252 <segmentsOn>
     37a:	60 e0       	ldi	r22, 0x00	; 0
     37c:	8c 2f       	mov	r24, r28
     37e:	cf 91       	pop	r28
     380:	0c 94 fb 00 	jmp	0x1f6	; 0x1f6 <digitOn>

00000384 <showPinBPhase3Text>:
     384:	69 e0       	ldi	r22, 0x09	; 9
     386:	87 e3       	ldi	r24, 0x37	; 55
     388:	0e 94 29 01 	call	0x252	; 0x252 <segmentsOn>
     38c:	68 e0       	ldi	r22, 0x08	; 8
     38e:	83 e6       	ldi	r24, 0x63	; 99
     390:	0e 94 29 01 	call	0x252	; 0x252 <segmentsOn>
     394:	67 e0       	ldi	r22, 0x07	; 7
     396:	86 e0       	ldi	r24, 0x06	; 6
     398:	0e 94 29 01 	call	0x252	; 0x252 <segmentsOn>
     39c:	66 e0       	ldi	r22, 0x06	; 6
     39e:	87 e4       	ldi	r24, 0x47	; 71
     3a0:	0e 94 29 01 	call	0x252	; 0x252 <segmentsOn>
     3a4:	65 e0       	ldi	r22, 0x05	; 5
     3a6:	87 e3       	ldi	r24, 0x37	; 55
     3a8:	0e 94 29 01 	call	0x252	; 0x252 <segmentsOn>
     3ac:	64 e0       	ldi	r22, 0x04	; 4
     3ae:	8f e4       	ldi	r24, 0x4F	; 79
     3b0:	0e 94 29 01 	call	0x252	; 0x252 <segmentsOn>
     3b4:	63 e0       	ldi	r22, 0x03	; 3
     3b6:	82 e4       	ldi	r24, 0x42	; 66
     3b8:	0c 94 29 01 	jmp	0x252	; 0x252 <segmentsOn>

000003bc <showc2018JOSH>:
     3bc:	6b e0       	ldi	r22, 0x0B	; 11
     3be:	83 e4       	ldi	r24, 0x43	; 67
     3c0:	0e 94 29 01 	call	0x252	; 0x252 <segmentsOn>
     3c4:	6a e0       	ldi	r22, 0x0A	; 10
     3c6:	82 e0       	ldi	r24, 0x02	; 2
     3c8:	0e 94 fb 00 	call	0x1f6	; 0x1f6 <digitOn>
     3cc:	69 e0       	ldi	r22, 0x09	; 9
     3ce:	80 e0       	ldi	r24, 0x00	; 0
     3d0:	0e 94 fb 00 	call	0x1f6	; 0x1f6 <digitOn>
     3d4:	68 e0       	ldi	r22, 0x08	; 8
     3d6:	81 e0       	ldi	r24, 0x01	; 1
     3d8:	0e 94 fb 00 	call	0x1f6	; 0x1f6 <digitOn>
     3dc:	67 e0       	ldi	r22, 0x07	; 7
     3de:	88 e0       	ldi	r24, 0x08	; 8
     3e0:	0e 94 fb 00 	call	0x1f6	; 0x1f6 <digitOn>
     3e4:	65 e0       	ldi	r22, 0x05	; 5
     3e6:	83 e3       	ldi	r24, 0x33	; 51
     3e8:	0e 94 29 01 	call	0x252	; 0x252 <segmentsOn>
     3ec:	64 e0       	ldi	r22, 0x04	; 4
     3ee:	8f e3       	ldi	r24, 0x3F	; 63
     3f0:	0e 94 29 01 	call	0x252	; 0x252 <segmentsOn>
     3f4:	63 e0       	ldi	r22, 0x03	; 3
     3f6:	8d e6       	ldi	r24, 0x6D	; 109
     3f8:	0e 94 29 01 	call	0x252	; 0x252 <segmentsOn>
     3fc:	62 e0       	ldi	r22, 0x02	; 2
     3fe:	86 e7       	ldi	r24, 0x76	; 118
     400:	0c 94 29 01 	jmp	0x252	; 0x252 <segmentsOn>

00000404 <battSegOn>:
     404:	68 e1       	ldi	r22, 0x18	; 24
     406:	0c 94 99 00 	jmp	0x132	; 0x132 <lcd_set_pixel>

0000040a <colonLOn>:
     40a:	ed e1       	ldi	r30, 0x1D	; 29
     40c:	fd e0       	ldi	r31, 0x0D	; 13
     40e:	80 81       	ld	r24, Z
     410:	81 60       	ori	r24, 0x01	; 1
     412:	80 83       	st	Z, r24
     414:	08 95       	ret

00000416 <colonLOff>:
     416:	ed e1       	ldi	r30, 0x1D	; 29
     418:	fd e0       	ldi	r31, 0x0D	; 13
     41a:	80 81       	ld	r24, Z
     41c:	8e 7f       	andi	r24, 0xFE	; 254
     41e:	80 83       	st	Z, r24
     420:	08 95       	ret

00000422 <colonROn>:
     422:	ee e1       	ldi	r30, 0x1E	; 30
     424:	fd e0       	ldi	r31, 0x0D	; 13
     426:	80 81       	ld	r24, Z
     428:	80 61       	ori	r24, 0x10	; 16
     42a:	80 83       	st	Z, r24
     42c:	08 95       	ret

0000042e <colonROff>:
     42e:	ee e1       	ldi	r30, 0x1E	; 30
     430:	fd e0       	ldi	r31, 0x0D	; 13
     432:	80 81       	ld	r24, Z
     434:	8f 7e       	andi	r24, 0xEF	; 239
     436:	80 83       	st	Z, r24
     438:	08 95       	ret

0000043a <decimalLOn>:
     43a:	ec e1       	ldi	r30, 0x1C	; 28
     43c:	fd e0       	ldi	r31, 0x0D	; 13
     43e:	80 81       	ld	r24, Z
     440:	80 61       	ori	r24, 0x10	; 16
     442:	80 83       	st	Z, r24
     444:	08 95       	ret

00000446 <decimalROn>:
     446:	ee e1       	ldi	r30, 0x1E	; 30
     448:	fd e0       	ldi	r31, 0x0D	; 13
     44a:	80 81       	ld	r24, Z
     44c:	81 60       	ori	r24, 0x01	; 1
     44e:	80 83       	st	Z, r24
     450:	08 95       	ret

00000452 <figure8On>:
     452:	ef 92       	push	r14
     454:	ff 92       	push	r15
     456:	0f 93       	push	r16
     458:	1f 93       	push	r17
     45a:	cf 93       	push	r28
     45c:	df 93       	push	r29
     45e:	e6 2f       	mov	r30, r22
     460:	f0 e0       	ldi	r31, 0x00	; 0
     462:	e0 50       	subi	r30, 0x00	; 0
     464:	f0 4e       	sbci	r31, 0xE0	; 224
     466:	e0 80       	ld	r14, Z
     468:	2e e0       	ldi	r18, 0x0E	; 14
     46a:	82 9f       	mul	r24, r18
     46c:	c0 01       	movw	r24, r0
     46e:	11 24       	eor	r1, r1
     470:	ec 01       	movw	r28, r24
     472:	c8 5f       	subi	r28, 0xF8	; 248
     474:	df 4d       	sbci	r29, 0xDF	; 223
     476:	00 e0       	ldi	r16, 0x00	; 0
     478:	10 e0       	ldi	r17, 0x00	; 0
     47a:	f1 2c       	mov	r15, r1
     47c:	c7 01       	movw	r24, r14
     47e:	00 2e       	mov	r0, r16
     480:	02 c0       	rjmp	.+4      	; 0x486 <figure8On+0x34>
     482:	95 95       	asr	r25
     484:	87 95       	ror	r24
     486:	0a 94       	dec	r0
     488:	e2 f7       	brpl	.-8      	; 0x482 <figure8On+0x30>
     48a:	80 ff       	sbrs	r24, 0
     48c:	04 c0       	rjmp	.+8      	; 0x496 <figure8On+0x44>
     48e:	69 81       	ldd	r22, Y+1	; 0x01
     490:	88 81       	ld	r24, Y
     492:	0e 94 99 00 	call	0x132	; 0x132 <lcd_set_pixel>
     496:	0f 5f       	subi	r16, 0xFF	; 255
     498:	1f 4f       	sbci	r17, 0xFF	; 255
     49a:	22 96       	adiw	r28, 0x02	; 2
     49c:	07 30       	cpi	r16, 0x07	; 7
     49e:	11 05       	cpc	r17, r1
     4a0:	69 f7       	brne	.-38     	; 0x47c <figure8On+0x2a>
     4a2:	df 91       	pop	r29
     4a4:	cf 91       	pop	r28
     4a6:	1f 91       	pop	r17
     4a8:	0f 91       	pop	r16
     4aa:	ff 90       	pop	r15
     4ac:	ef 90       	pop	r14
     4ae:	08 95       	ret

000004b0 <lcd_blank>:
     4b0:	e0 e0       	ldi	r30, 0x00	; 0
     4b2:	fd e0       	ldi	r31, 0x0D	; 13
     4b4:	80 81       	ld	r24, Z
     4b6:	82 60       	ori	r24, 0x02	; 2
     4b8:	80 83       	st	Z, r24
     4ba:	08 95       	ret

000004bc <lcd_unblank>:
     4bc:	e0 e0       	ldi	r30, 0x00	; 0
     4be:	fd e0       	ldi	r31, 0x0D	; 13
     4c0:	80 81       	ld	r24, Z
     4c2:	8d 7f       	andi	r24, 0xFD	; 253
     4c4:	80 83       	st	Z, r24
     4c6:	08 95       	ret

000004c8 <adc_read_vcc_x_10>:
     4c8:	81 e0       	ldi	r24, 0x01	; 1
     4ca:	80 93 72 00 	sts	0x0072, r24	; 0x800072 <__TEXT_REGION_LENGTH__+0x700072>
     4ce:	80 93 40 02 	sts	0x0240, r24	; 0x800240 <__TEXT_REGION_LENGTH__+0x700240>
     4d2:	20 e8       	ldi	r18, 0x80	; 128
     4d4:	2a 95       	dec	r18
     4d6:	f1 f7       	brne	.-4      	; 0x4d4 <adc_read_vcc_x_10+0xc>
     4d8:	00 c0       	rjmp	.+0      	; 0x4da <adc_read_vcc_x_10+0x12>
     4da:	97 e0       	ldi	r25, 0x07	; 7
     4dc:	9a 95       	dec	r25
     4de:	f1 f7       	brne	.-4      	; 0x4dc <adc_read_vcc_x_10+0x14>
     4e0:	00 00       	nop
     4e2:	80 93 46 02 	sts	0x0246, r24	; 0x800246 <__TEXT_REGION_LENGTH__+0x700246>
     4e6:	85 e0       	ldi	r24, 0x05	; 5
     4e8:	80 93 40 02 	sts	0x0240, r24	; 0x800240 <__TEXT_REGION_LENGTH__+0x700240>
     4ec:	80 91 46 02 	lds	r24, 0x0246	; 0x800246 <__TEXT_REGION_LENGTH__+0x700246>
     4f0:	80 ff       	sbrs	r24, 0
     4f2:	fc cf       	rjmp	.-8      	; 0x4ec <adc_read_vcc_x_10+0x24>
     4f4:	80 91 50 02 	lds	r24, 0x0250	; 0x800250 <__TEXT_REGION_LENGTH__+0x700250>
     4f8:	10 92 40 02 	sts	0x0240, r1	; 0x800240 <__TEXT_REGION_LENGTH__+0x700240>
     4fc:	93 e0       	ldi	r25, 0x03	; 3
     4fe:	90 93 72 00 	sts	0x0072, r25	; 0x800072 <__TEXT_REGION_LENGTH__+0x700072>
     502:	24 e6       	ldi	r18, 0x64	; 100
     504:	82 02       	muls	r24, r18
     506:	c0 01       	movw	r24, r0
     508:	11 24       	eor	r1, r1
     50a:	97 ff       	sbrs	r25, 7
     50c:	02 c0       	rjmp	.+4      	; 0x512 <adc_read_vcc_x_10+0x4a>
     50e:	81 58       	subi	r24, 0x81	; 129
     510:	9f 4f       	sbci	r25, 0xFF	; 255
     512:	88 0f       	add	r24, r24
     514:	89 2f       	mov	r24, r25
     516:	88 1f       	adc	r24, r24
     518:	99 0b       	sbc	r25, r25
     51a:	08 95       	ret

0000051c <rx8900_time_regs_get>:
     51c:	28 e0       	ldi	r18, 0x08	; 8
     51e:	ac 01       	movw	r20, r24
     520:	60 e0       	ldi	r22, 0x00	; 0
     522:	82 e3       	ldi	r24, 0x32	; 50
     524:	0c 94 88 09 	jmp	0x1310	; 0x1310 <USI_TWI_Read_Data>

00000528 <daysInMonth>:
     528:	90 e0       	ldi	r25, 0x00	; 0
     52a:	fc 01       	movw	r30, r24
     52c:	31 97       	sbiw	r30, 0x01	; 1
     52e:	ec 30       	cpi	r30, 0x0C	; 12
     530:	f1 05       	cpc	r31, r1
     532:	60 f4       	brcc	.+24     	; 0x54c <daysInMonth+0x24>
     534:	88 27       	eor	r24, r24
     536:	e4 59       	subi	r30, 0x94	; 148
     538:	ff 4f       	sbci	r31, 0xFF	; 255
     53a:	8f 4f       	sbci	r24, 0xFF	; 255
     53c:	0c 94 0e 0a 	jmp	0x141c	; 0x141c <__tablejump2__>
     540:	8e e1       	ldi	r24, 0x1E	; 30
     542:	08 95       	ret
     544:	63 70       	andi	r22, 0x03	; 3
     546:	21 f0       	breq	.+8      	; 0x550 <daysInMonth+0x28>
     548:	8c e1       	ldi	r24, 0x1C	; 28
     54a:	08 95       	ret
     54c:	8f e1       	ldi	r24, 0x1F	; 31
     54e:	08 95       	ret
     550:	8d e1       	ldi	r24, 0x1D	; 29
     552:	08 95       	ret

00000554 <lcd_init>:
     554:	e0 e0       	ldi	r30, 0x00	; 0
     556:	fd e0       	ldi	r31, 0x0D	; 13
     558:	84 e0       	ldi	r24, 0x04	; 4
     55a:	80 83       	st	Z, r24
     55c:	88 ef       	ldi	r24, 0xF8	; 248
     55e:	81 83       	std	Z+1, r24	; 0x01
     560:	8f e3       	ldi	r24, 0x3F	; 63
     562:	82 83       	std	Z+2, r24	; 0x02
     564:	80 81       	ld	r24, Z
     566:	86 68       	ori	r24, 0x86	; 134
     568:	80 83       	st	Z, r24
     56a:	17 82       	std	Z+7, r1	; 0x07
     56c:	08 95       	ret

0000056e <ReadSignatureByte>:
     56e:	aa ec       	ldi	r26, 0xCA	; 202
     570:	b1 e0       	ldi	r27, 0x01	; 1
     572:	22 e0       	ldi	r18, 0x02	; 2
     574:	2c 93       	st	X, r18
     576:	fc 01       	movw	r30, r24
     578:	84 91       	lpm	r24, Z
     57a:	1c 92       	st	X, r1
     57c:	08 95       	ret

0000057e <prr_init>:
     57e:	e0 e7       	ldi	r30, 0x70	; 112
     580:	f0 e0       	ldi	r31, 0x00	; 0
     582:	87 e5       	ldi	r24, 0x57	; 87
     584:	80 83       	st	Z, r24
     586:	8f e5       	ldi	r24, 0x5F	; 95
     588:	83 83       	std	Z+3, r24	; 0x03
     58a:	85 83       	std	Z+5, r24	; 0x05
     58c:	08 95       	ret

0000058e <disableUnusedIOPins>:
     58e:	e0 e2       	ldi	r30, 0x20	; 32
     590:	f6 e0       	ldi	r31, 0x06	; 6
     592:	87 e0       	ldi	r24, 0x07	; 7
     594:	80 8b       	std	Z+16, r24	; 0x10
     596:	81 8b       	std	Z+17, r24	; 0x11
     598:	83 8b       	std	Z+19, r24	; 0x13
     59a:	84 8b       	std	Z+20, r24	; 0x14
     59c:	85 8b       	std	Z+21, r24	; 0x15
     59e:	86 8b       	std	Z+22, r24	; 0x16
     5a0:	e0 e4       	ldi	r30, 0x40	; 64
     5a2:	f6 e0       	ldi	r31, 0x06	; 6
     5a4:	84 8b       	std	Z+20, r24	; 0x14
     5a6:	85 8b       	std	Z+21, r24	; 0x15
     5a8:	86 8b       	std	Z+22, r24	; 0x16
     5aa:	e0 ec       	ldi	r30, 0xC0	; 192
     5ac:	f6 e0       	ldi	r31, 0x06	; 6
     5ae:	80 8b       	std	Z+16, r24	; 0x10
     5b0:	81 8b       	std	Z+17, r24	; 0x11
     5b2:	82 8b       	std	Z+18, r24	; 0x12
     5b4:	83 8b       	std	Z+19, r24	; 0x13
     5b6:	84 8b       	std	Z+20, r24	; 0x14
     5b8:	85 8b       	std	Z+21, r24	; 0x15
     5ba:	86 8b       	std	Z+22, r24	; 0x16
     5bc:	87 8b       	std	Z+23, r24	; 0x17
     5be:	e0 e6       	ldi	r30, 0x60	; 96
     5c0:	f7 e0       	ldi	r31, 0x07	; 7
     5c2:	80 8b       	std	Z+16, r24	; 0x10
     5c4:	81 8b       	std	Z+17, r24	; 0x11
     5c6:	82 8b       	std	Z+18, r24	; 0x12
     5c8:	83 8b       	std	Z+19, r24	; 0x13
     5ca:	84 8b       	std	Z+20, r24	; 0x14
     5cc:	85 8b       	std	Z+21, r24	; 0x15
     5ce:	87 8b       	std	Z+23, r24	; 0x17
     5d0:	08 95       	ret

000005d2 <initDiagnosticPins>:
     5d2:	82 e0       	ldi	r24, 0x02	; 2
     5d4:	80 93 b2 00 	sts	0x00B2, r24	; 0x8000b2 <__TEXT_REGION_LENGTH__+0x7000b2>
     5d8:	e0 e4       	ldi	r30, 0x40	; 64
     5da:	f6 e0       	ldi	r31, 0x06	; 6
     5dc:	88 e1       	ldi	r24, 0x18	; 24
     5de:	82 8b       	std	Z+18, r24	; 0x12
     5e0:	83 8b       	std	Z+19, r24	; 0x13
     5e2:	08 95       	ret

000005e4 <FOUT_in_pin_enable>:
     5e4:	e0 e2       	ldi	r30, 0x20	; 32
     5e6:	f6 e0       	ldi	r31, 0x06	; 6
     5e8:	82 e0       	ldi	r24, 0x02	; 2
     5ea:	82 8b       	std	Z+18, r24	; 0x12
     5ec:	81 e0       	ldi	r24, 0x01	; 1
     5ee:	81 87       	std	Z+9, r24	; 0x09
     5f0:	ea e2       	ldi	r30, 0x2A	; 42
     5f2:	f6 e0       	ldi	r31, 0x06	; 6
     5f4:	80 81       	ld	r24, Z
     5f6:	84 60       	ori	r24, 0x04	; 4
     5f8:	80 83       	st	Z, r24
     5fa:	08 95       	ret

000005fc <output1onFOEpin>:
     5fc:	e0 e2       	ldi	r30, 0x20	; 32
     5fe:	f6 e0       	ldi	r31, 0x06	; 6
     600:	80 e8       	ldi	r24, 0x80	; 128
     602:	81 83       	std	Z+1, r24	; 0x01
     604:	85 83       	std	Z+5, r24	; 0x05
     606:	08 95       	ret

00000608 <__vector_39>:
     608:	18 95       	reti

0000060a <triggerPinEnable>:
     60a:	e0 e4       	ldi	r30, 0x40	; 64
     60c:	f6 e0       	ldi	r31, 0x06	; 6
     60e:	88 e1       	ldi	r24, 0x18	; 24
     610:	87 8b       	std	Z+23, r24	; 0x17
     612:	83 ef       	ldi	r24, 0xF3	; 243
     614:	91 e0       	ldi	r25, 0x01	; 1
     616:	01 97       	sbiw	r24, 0x01	; 1
     618:	f1 f7       	brne	.-4      	; 0x616 <triggerPinEnable+0xc>
     61a:	00 c0       	rjmp	.+0      	; 0x61c <triggerPinEnable+0x12>
     61c:	00 00       	nop
     61e:	81 e0       	ldi	r24, 0x01	; 1
     620:	81 87       	std	Z+9, r24	; 0x09
     622:	ea e4       	ldi	r30, 0x4A	; 74
     624:	f6 e0       	ldi	r31, 0x06	; 6
     626:	80 81       	ld	r24, Z
     628:	80 68       	ori	r24, 0x80	; 128
     62a:	80 83       	st	Z, r24
     62c:	08 95       	ret

0000062e <triggerPinDisable>:
     62e:	ea e4       	ldi	r30, 0x4A	; 74
     630:	f6 e0       	ldi	r31, 0x06	; 6
     632:	80 81       	ld	r24, Z
     634:	8f 77       	andi	r24, 0x7F	; 127
     636:	80 83       	st	Z, r24
     638:	87 e0       	ldi	r24, 0x07	; 7
     63a:	80 93 57 06 	sts	0x0657, r24	; 0x800657 <__TEXT_REGION_LENGTH__+0x700657>
     63e:	08 95       	ret

00000640 <__vector_2>:
     640:	18 95       	reti

00000642 <FlashFetInit0>:
     642:	e0 e6       	ldi	r30, 0x60	; 96
     644:	f6 e0       	ldi	r31, 0x06	; 6
     646:	80 81       	ld	r24, Z
     648:	81 60       	ori	r24, 0x01	; 1
     64a:	80 83       	st	Z, r24
     64c:	08 95       	ret

0000064e <FlashFetInit1>:
     64e:	e0 e6       	ldi	r30, 0x60	; 96
     650:	f6 e0       	ldi	r31, 0x06	; 6
     652:	80 81       	ld	r24, Z
     654:	82 60       	ori	r24, 0x02	; 2
     656:	80 83       	st	Z, r24
     658:	08 95       	ret

0000065a <FlashFetOn0>:
     65a:	e0 e6       	ldi	r30, 0x60	; 96
     65c:	f6 e0       	ldi	r31, 0x06	; 6
     65e:	85 81       	ldd	r24, Z+5	; 0x05
     660:	81 60       	ori	r24, 0x01	; 1
     662:	85 83       	std	Z+5, r24	; 0x05
     664:	08 95       	ret

00000666 <FlashFetOff0>:
     666:	e0 e6       	ldi	r30, 0x60	; 96
     668:	f6 e0       	ldi	r31, 0x06	; 6
     66a:	86 81       	ldd	r24, Z+6	; 0x06
     66c:	81 60       	ori	r24, 0x01	; 1
     66e:	86 83       	std	Z+6, r24	; 0x06
     670:	08 95       	ret

00000672 <FlashFetOn1>:
     672:	e0 e6       	ldi	r30, 0x60	; 96
     674:	f6 e0       	ldi	r31, 0x06	; 6
     676:	85 81       	ldd	r24, Z+5	; 0x05
     678:	82 60       	ori	r24, 0x02	; 2
     67a:	85 83       	std	Z+5, r24	; 0x05
     67c:	08 95       	ret

0000067e <FlashFetOff1>:
     67e:	e0 e6       	ldi	r30, 0x60	; 96
     680:	f6 e0       	ldi	r31, 0x06	; 6
     682:	86 81       	ldd	r24, Z+6	; 0x06
     684:	82 60       	ori	r24, 0x02	; 2
     686:	86 83       	std	Z+6, r24	; 0x06
     688:	08 95       	ret

0000068a <initFlash>:
     68a:	0e 94 21 03 	call	0x642	; 0x642 <FlashFetInit0>
     68e:	0c 94 27 03 	jmp	0x64e	; 0x64e <FlashFetInit1>

00000692 <flash>:
     692:	1f 93       	push	r17
     694:	cf 93       	push	r28
     696:	df 93       	push	r29
     698:	0e 94 2d 03 	call	0x65a	; 0x65a <FlashFetOn0>
     69c:	8f e0       	ldi	r24, 0x0F	; 15
     69e:	97 e2       	ldi	r25, 0x27	; 39
     6a0:	01 97       	sbiw	r24, 0x01	; 1
     6a2:	f1 f7       	brne	.-4      	; 0x6a0 <flash+0xe>
     6a4:	00 c0       	rjmp	.+0      	; 0x6a6 <flash+0x14>
     6a6:	00 00       	nop
     6a8:	0e 94 33 03 	call	0x666	; 0x666 <FlashFetOff0>
     6ac:	0e 94 39 03 	call	0x672	; 0x672 <FlashFetOn1>
     6b0:	ef e0       	ldi	r30, 0x0F	; 15
     6b2:	f7 e2       	ldi	r31, 0x27	; 39
     6b4:	31 97       	sbiw	r30, 0x01	; 1
     6b6:	f1 f7       	brne	.-4      	; 0x6b4 <flash+0x22>
     6b8:	00 c0       	rjmp	.+0      	; 0x6ba <flash+0x28>
     6ba:	00 00       	nop
     6bc:	0e 94 3f 03 	call	0x67e	; 0x67e <FlashFetOff1>
     6c0:	0e 94 2d 03 	call	0x65a	; 0x65a <FlashFetOn0>
     6c4:	8f e0       	ldi	r24, 0x0F	; 15
     6c6:	97 e2       	ldi	r25, 0x27	; 39
     6c8:	01 97       	sbiw	r24, 0x01	; 1
     6ca:	f1 f7       	brne	.-4      	; 0x6c8 <flash+0x36>
     6cc:	00 c0       	rjmp	.+0      	; 0x6ce <flash+0x3c>
     6ce:	00 00       	nop
     6d0:	0e 94 33 03 	call	0x666	; 0x666 <FlashFetOff0>
     6d4:	0e 94 39 03 	call	0x672	; 0x672 <FlashFetOn1>
     6d8:	ef e0       	ldi	r30, 0x0F	; 15
     6da:	f7 e2       	ldi	r31, 0x27	; 39
     6dc:	31 97       	sbiw	r30, 0x01	; 1
     6de:	f1 f7       	brne	.-4      	; 0x6dc <flash+0x4a>
     6e0:	00 c0       	rjmp	.+0      	; 0x6e2 <flash+0x50>
     6e2:	00 00       	nop
     6e4:	0e 94 3f 03 	call	0x67e	; 0x67e <FlashFetOff1>
     6e8:	ce e1       	ldi	r28, 0x1E	; 30
     6ea:	14 e6       	ldi	r17, 0x64	; 100
     6ec:	0e 94 2d 03 	call	0x65a	; 0x65a <FlashFetOn0>
     6f0:	8c 2f       	mov	r24, r28
     6f2:	e9 ef       	ldi	r30, 0xF9	; 249
     6f4:	f0 e0       	ldi	r31, 0x00	; 0
     6f6:	31 97       	sbiw	r30, 0x01	; 1
     6f8:	f1 f7       	brne	.-4      	; 0x6f6 <flash+0x64>
     6fa:	00 c0       	rjmp	.+0      	; 0x6fc <flash+0x6a>
     6fc:	00 00       	nop
     6fe:	81 50       	subi	r24, 0x01	; 1
     700:	c1 f7       	brne	.-16     	; 0x6f2 <flash+0x60>
     702:	0e 94 33 03 	call	0x666	; 0x666 <FlashFetOff0>
     706:	d1 2f       	mov	r29, r17
     708:	dc 1b       	sub	r29, r28
     70a:	8d 2f       	mov	r24, r29
     70c:	88 23       	and	r24, r24
     70e:	41 f0       	breq	.+16     	; 0x720 <flash+0x8e>
     710:	e9 ef       	ldi	r30, 0xF9	; 249
     712:	f0 e0       	ldi	r31, 0x00	; 0
     714:	31 97       	sbiw	r30, 0x01	; 1
     716:	f1 f7       	brne	.-4      	; 0x714 <flash+0x82>
     718:	00 c0       	rjmp	.+0      	; 0x71a <flash+0x88>
     71a:	00 00       	nop
     71c:	81 50       	subi	r24, 0x01	; 1
     71e:	f6 cf       	rjmp	.-20     	; 0x70c <flash+0x7a>
     720:	0e 94 39 03 	call	0x672	; 0x672 <FlashFetOn1>
     724:	8c 2f       	mov	r24, r28
     726:	e9 ef       	ldi	r30, 0xF9	; 249
     728:	f0 e0       	ldi	r31, 0x00	; 0
     72a:	31 97       	sbiw	r30, 0x01	; 1
     72c:	f1 f7       	brne	.-4      	; 0x72a <flash+0x98>
     72e:	00 c0       	rjmp	.+0      	; 0x730 <flash+0x9e>
     730:	00 00       	nop
     732:	81 50       	subi	r24, 0x01	; 1
     734:	c1 f7       	brne	.-16     	; 0x726 <flash+0x94>
     736:	0e 94 3f 03 	call	0x67e	; 0x67e <FlashFetOff1>
     73a:	dd 23       	and	r29, r29
     73c:	41 f0       	breq	.+16     	; 0x74e <flash+0xbc>
     73e:	89 ef       	ldi	r24, 0xF9	; 249
     740:	90 e0       	ldi	r25, 0x00	; 0
     742:	01 97       	sbiw	r24, 0x01	; 1
     744:	f1 f7       	brne	.-4      	; 0x742 <flash+0xb0>
     746:	00 c0       	rjmp	.+0      	; 0x748 <flash+0xb6>
     748:	00 00       	nop
     74a:	d1 50       	subi	r29, 0x01	; 1
     74c:	f6 cf       	rjmp	.-20     	; 0x73a <flash+0xa8>
     74e:	ca 50       	subi	r28, 0x0A	; 10
     750:	69 f6       	brne	.-102    	; 0x6ec <flash+0x5a>
     752:	df 91       	pop	r29
     754:	cf 91       	pop	r28
     756:	1f 91       	pop	r17
     758:	08 95       	ret

0000075a <rx8900_fout_1Hz>:
     75a:	cf 93       	push	r28
     75c:	df 93       	push	r29
     75e:	1f 92       	push	r1
     760:	cd b7       	in	r28, 0x3d	; 61
     762:	de b7       	in	r29, 0x3e	; 62
     764:	88 e0       	ldi	r24, 0x08	; 8
     766:	89 83       	std	Y+1, r24	; 0x01
     768:	21 e0       	ldi	r18, 0x01	; 1
     76a:	ae 01       	movw	r20, r28
     76c:	4f 5f       	subi	r20, 0xFF	; 255
     76e:	5f 4f       	sbci	r21, 0xFF	; 255
     770:	6d e0       	ldi	r22, 0x0D	; 13
     772:	82 e3       	ldi	r24, 0x32	; 50
     774:	0e 94 6a 09 	call	0x12d4	; 0x12d4 <USI_TWI_Write_Data>
     778:	0f 90       	pop	r0
     77a:	df 91       	pop	r29
     77c:	cf 91       	pop	r28
     77e:	08 95       	ret

00000780 <bcd2c>:
     780:	98 2f       	mov	r25, r24
     782:	92 95       	swap	r25
     784:	9f 70       	andi	r25, 0x0F	; 15
     786:	2a ef       	ldi	r18, 0xFA	; 250
     788:	92 9f       	mul	r25, r18
     78a:	80 0d       	add	r24, r0
     78c:	11 24       	eor	r1, r1
     78e:	08 95       	ret

00000790 <showClockTime>:
     790:	df 92       	push	r13
     792:	ef 92       	push	r14
     794:	ff 92       	push	r15
     796:	0f 93       	push	r16
     798:	1f 93       	push	r17
     79a:	cf 93       	push	r28
     79c:	df 93       	push	r29
     79e:	ec 01       	movw	r28, r24
     7a0:	88 81       	ld	r24, Y
     7a2:	0e 94 c0 03 	call	0x780	; 0x780 <bcd2c>
     7a6:	f8 2e       	mov	r15, r24
     7a8:	89 81       	ldd	r24, Y+1	; 0x01
     7aa:	0e 94 c0 03 	call	0x780	; 0x780 <bcd2c>
     7ae:	08 2f       	mov	r16, r24
     7b0:	8a 81       	ldd	r24, Y+2	; 0x02
     7b2:	0e 94 c0 03 	call	0x780	; 0x780 <bcd2c>
     7b6:	18 2f       	mov	r17, r24
     7b8:	8c 81       	ldd	r24, Y+4	; 0x04
     7ba:	0e 94 c0 03 	call	0x780	; 0x780 <bcd2c>
     7be:	d8 2e       	mov	r13, r24
     7c0:	8d 81       	ldd	r24, Y+5	; 0x05
     7c2:	0e 94 c0 03 	call	0x780	; 0x780 <bcd2c>
     7c6:	e8 2e       	mov	r14, r24
     7c8:	8e 81       	ldd	r24, Y+6	; 0x06
     7ca:	0e 94 c0 03 	call	0x780	; 0x780 <bcd2c>
     7ce:	ca e0       	ldi	r28, 0x0A	; 10
     7d0:	6c 2f       	mov	r22, r28
     7d2:	0e 94 e7 09 	call	0x13ce	; 0x13ce <__udivmodqi4>
     7d6:	d8 2f       	mov	r29, r24
     7d8:	69 2f       	mov	r22, r25
     7da:	86 e0       	ldi	r24, 0x06	; 6
     7dc:	0e 94 c8 00 	call	0x190	; 0x190 <digitShow>
     7e0:	6d 2f       	mov	r22, r29
     7e2:	87 e0       	ldi	r24, 0x07	; 7
     7e4:	0e 94 c8 00 	call	0x190	; 0x190 <digitShow>
     7e8:	8d 2d       	mov	r24, r13
     7ea:	6c 2f       	mov	r22, r28
     7ec:	0e 94 e7 09 	call	0x13ce	; 0x13ce <__udivmodqi4>
     7f0:	d8 2f       	mov	r29, r24
     7f2:	69 2f       	mov	r22, r25
     7f4:	88 e0       	ldi	r24, 0x08	; 8
     7f6:	0e 94 c8 00 	call	0x190	; 0x190 <digitShow>
     7fa:	6d 2f       	mov	r22, r29
     7fc:	89 e0       	ldi	r24, 0x09	; 9
     7fe:	0e 94 c8 00 	call	0x190	; 0x190 <digitShow>
     802:	8e 2d       	mov	r24, r14
     804:	6c 2f       	mov	r22, r28
     806:	0e 94 e7 09 	call	0x13ce	; 0x13ce <__udivmodqi4>
     80a:	d8 2f       	mov	r29, r24
     80c:	69 2f       	mov	r22, r25
     80e:	8a e0       	ldi	r24, 0x0A	; 10
     810:	0e 94 c8 00 	call	0x190	; 0x190 <digitShow>
     814:	6d 2f       	mov	r22, r29
     816:	8b e0       	ldi	r24, 0x0B	; 11
     818:	0e 94 c8 00 	call	0x190	; 0x190 <digitShow>
     81c:	8f 2d       	mov	r24, r15
     81e:	6c 2f       	mov	r22, r28
     820:	0e 94 e7 09 	call	0x13ce	; 0x13ce <__udivmodqi4>
     824:	d8 2f       	mov	r29, r24
     826:	69 2f       	mov	r22, r25
     828:	80 e0       	ldi	r24, 0x00	; 0
     82a:	0e 94 c8 00 	call	0x190	; 0x190 <digitShow>
     82e:	6d 2f       	mov	r22, r29
     830:	81 e0       	ldi	r24, 0x01	; 1
     832:	0e 94 c8 00 	call	0x190	; 0x190 <digitShow>
     836:	80 2f       	mov	r24, r16
     838:	6c 2f       	mov	r22, r28
     83a:	0e 94 e7 09 	call	0x13ce	; 0x13ce <__udivmodqi4>
     83e:	d8 2f       	mov	r29, r24
     840:	69 2f       	mov	r22, r25
     842:	82 e0       	ldi	r24, 0x02	; 2
     844:	0e 94 c8 00 	call	0x190	; 0x190 <digitShow>
     848:	6d 2f       	mov	r22, r29
     84a:	83 e0       	ldi	r24, 0x03	; 3
     84c:	0e 94 c8 00 	call	0x190	; 0x190 <digitShow>
     850:	81 2f       	mov	r24, r17
     852:	6c 2f       	mov	r22, r28
     854:	0e 94 e7 09 	call	0x13ce	; 0x13ce <__udivmodqi4>
     858:	c8 2f       	mov	r28, r24
     85a:	69 2f       	mov	r22, r25
     85c:	84 e0       	ldi	r24, 0x04	; 4
     85e:	0e 94 c8 00 	call	0x190	; 0x190 <digitShow>
     862:	6c 2f       	mov	r22, r28
     864:	85 e0       	ldi	r24, 0x05	; 5
     866:	df 91       	pop	r29
     868:	cf 91       	pop	r28
     86a:	1f 91       	pop	r17
     86c:	0f 91       	pop	r16
     86e:	ff 90       	pop	r15
     870:	ef 90       	pop	r14
     872:	df 90       	pop	r13
     874:	0c 94 c8 00 	jmp	0x190	; 0x190 <digitShow>

00000878 <c2bcd>:
     878:	28 2f       	mov	r18, r24
     87a:	6a e0       	ldi	r22, 0x0A	; 10
     87c:	0e 94 e7 09 	call	0x13ce	; 0x13ce <__udivmodqi4>
     880:	98 2f       	mov	r25, r24
     882:	99 0f       	add	r25, r25
     884:	89 0f       	add	r24, r25
     886:	88 0f       	add	r24, r24
     888:	82 0f       	add	r24, r18
     88a:	08 95       	ret

0000088c <rx8900_set_magic>:
     88c:	24 e0       	ldi	r18, 0x04	; 4
     88e:	4a eb       	ldi	r20, 0xBA	; 186
     890:	50 e2       	ldi	r21, 0x20	; 32
     892:	68 e0       	ldi	r22, 0x08	; 8
     894:	82 e3       	ldi	r24, 0x32	; 50
     896:	0c 94 6a 09 	jmp	0x12d4	; 0x12d4 <USI_TWI_Write_Data>

0000089a <rx8900_open_MOS>:
     89a:	cf 93       	push	r28
     89c:	df 93       	push	r29
     89e:	1f 92       	push	r1
     8a0:	cd b7       	in	r28, 0x3d	; 61
     8a2:	de b7       	in	r29, 0x3e	; 62
     8a4:	19 82       	std	Y+1, r1	; 0x01
     8a6:	21 e0       	ldi	r18, 0x01	; 1
     8a8:	ae 01       	movw	r20, r28
     8aa:	4f 5f       	subi	r20, 0xFF	; 255
     8ac:	5f 4f       	sbci	r21, 0xFF	; 255
     8ae:	68 e1       	ldi	r22, 0x18	; 24
     8b0:	82 e3       	ldi	r24, 0x32	; 50
     8b2:	0e 94 6a 09 	call	0x12d4	; 0x12d4 <USI_TWI_Write_Data>
     8b6:	0f 90       	pop	r0
     8b8:	df 91       	pop	r29
     8ba:	cf 91       	pop	r28
     8bc:	08 95       	ret

000008be <rx8900_check__voltage_24>:
     8be:	cf 93       	push	r28
     8c0:	df 93       	push	r29
     8c2:	1f 92       	push	r1
     8c4:	cd b7       	in	r28, 0x3d	; 61
     8c6:	de b7       	in	r29, 0x3e	; 62
     8c8:	21 e0       	ldi	r18, 0x01	; 1
     8ca:	ae 01       	movw	r20, r28
     8cc:	4f 5f       	subi	r20, 0xFF	; 255
     8ce:	5f 4f       	sbci	r21, 0xFF	; 255
     8d0:	6e e0       	ldi	r22, 0x0E	; 14
     8d2:	82 e3       	ldi	r24, 0x32	; 50
     8d4:	0e 94 88 09 	call	0x1310	; 0x1310 <USI_TWI_Read_Data>
     8d8:	89 81       	ldd	r24, Y+1	; 0x01
     8da:	82 70       	andi	r24, 0x02	; 2
     8dc:	0f 90       	pop	r0
     8de:	df 91       	pop	r29
     8e0:	cf 91       	pop	r28
     8e2:	08 95       	ret

000008e4 <rx8900_low_voltage_clear>:
     8e4:	cf 93       	push	r28
     8e6:	df 93       	push	r29
     8e8:	1f 92       	push	r1
     8ea:	cd b7       	in	r28, 0x3d	; 61
     8ec:	de b7       	in	r29, 0x3e	; 62
     8ee:	19 82       	std	Y+1, r1	; 0x01
     8f0:	21 e0       	ldi	r18, 0x01	; 1
     8f2:	ae 01       	movw	r20, r28
     8f4:	4f 5f       	subi	r20, 0xFF	; 255
     8f6:	5f 4f       	sbci	r21, 0xFF	; 255
     8f8:	6e e0       	ldi	r22, 0x0E	; 14
     8fa:	82 e3       	ldi	r24, 0x32	; 50
     8fc:	0e 94 6a 09 	call	0x12d4	; 0x12d4 <USI_TWI_Write_Data>
     900:	0f 90       	pop	r0
     902:	df 91       	pop	r29
     904:	cf 91       	pop	r28
     906:	08 95       	ret

00000908 <rx8900_time_regs_valid>:
     908:	ff 92       	push	r15
     90a:	0f 93       	push	r16
     90c:	1f 93       	push	r17
     90e:	cf 93       	push	r28
     910:	df 93       	push	r29
     912:	ec 01       	movw	r28, r24
     914:	8e 81       	ldd	r24, Y+6	; 0x06
     916:	0e 94 c0 03 	call	0x780	; 0x780 <bcd2c>
     91a:	f8 2e       	mov	r15, r24
     91c:	83 e6       	ldi	r24, 0x63	; 99
     91e:	8f 15       	cp	r24, r15
     920:	48 f1       	brcs	.+82     	; 0x974 <rx8900_time_regs_valid+0x6c>
     922:	8d 81       	ldd	r24, Y+5	; 0x05
     924:	0e 94 c0 03 	call	0x780	; 0x780 <bcd2c>
     928:	08 2f       	mov	r16, r24
     92a:	8f ef       	ldi	r24, 0xFF	; 255
     92c:	80 0f       	add	r24, r16
     92e:	8c 30       	cpi	r24, 0x0C	; 12
     930:	08 f5       	brcc	.+66     	; 0x974 <rx8900_time_regs_valid+0x6c>
     932:	8c 81       	ldd	r24, Y+4	; 0x04
     934:	0e 94 c0 03 	call	0x780	; 0x780 <bcd2c>
     938:	18 2f       	mov	r17, r24
     93a:	88 23       	and	r24, r24
     93c:	d9 f0       	breq	.+54     	; 0x974 <rx8900_time_regs_valid+0x6c>
     93e:	6f 2d       	mov	r22, r15
     940:	80 2f       	mov	r24, r16
     942:	0e 94 94 02 	call	0x528	; 0x528 <daysInMonth>
     946:	81 17       	cp	r24, r17
     948:	a8 f0       	brcs	.+42     	; 0x974 <rx8900_time_regs_valid+0x6c>
     94a:	8f 81       	ldd	r24, Y+7	; 0x07
     94c:	0e 94 c0 03 	call	0x780	; 0x780 <bcd2c>
     950:	85 31       	cpi	r24, 0x15	; 21
     952:	80 f4       	brcc	.+32     	; 0x974 <rx8900_time_regs_valid+0x6c>
     954:	88 81       	ld	r24, Y
     956:	0e 94 c0 03 	call	0x780	; 0x780 <bcd2c>
     95a:	8c 33       	cpi	r24, 0x3C	; 60
     95c:	58 f4       	brcc	.+22     	; 0x974 <rx8900_time_regs_valid+0x6c>
     95e:	89 81       	ldd	r24, Y+1	; 0x01
     960:	0e 94 c0 03 	call	0x780	; 0x780 <bcd2c>
     964:	8c 33       	cpi	r24, 0x3C	; 60
     966:	30 f4       	brcc	.+12     	; 0x974 <rx8900_time_regs_valid+0x6c>
     968:	8a 81       	ldd	r24, Y+2	; 0x02
     96a:	0e 94 c0 03 	call	0x780	; 0x780 <bcd2c>
     96e:	91 e0       	ldi	r25, 0x01	; 1
     970:	88 31       	cpi	r24, 0x18	; 24
     972:	08 f0       	brcs	.+2      	; 0x976 <rx8900_time_regs_valid+0x6e>
     974:	90 e0       	ldi	r25, 0x00	; 0
     976:	89 2f       	mov	r24, r25
     978:	df 91       	pop	r29
     97a:	cf 91       	pop	r28
     97c:	1f 91       	pop	r17
     97e:	0f 91       	pop	r16
     980:	ff 90       	pop	r15
     982:	08 95       	ret

00000984 <rx8900_time_regs_to_count>:
     984:	af 92       	push	r10
     986:	bf 92       	push	r11
     988:	cf 92       	push	r12
     98a:	df 92       	push	r13
     98c:	ef 92       	push	r14
     98e:	ff 92       	push	r15
     990:	0f 93       	push	r16
     992:	1f 93       	push	r17
     994:	cf 93       	push	r28
     996:	df 93       	push	r29
     998:	ec 01       	movw	r28, r24
     99a:	7b 01       	movw	r14, r22
     99c:	fb 01       	movw	r30, r22
     99e:	80 81       	ld	r24, Z
     9a0:	0e 94 c0 03 	call	0x780	; 0x780 <bcd2c>
     9a4:	88 83       	st	Y, r24
     9a6:	f7 01       	movw	r30, r14
     9a8:	81 81       	ldd	r24, Z+1	; 0x01
     9aa:	0e 94 c0 03 	call	0x780	; 0x780 <bcd2c>
     9ae:	89 83       	std	Y+1, r24	; 0x01
     9b0:	f7 01       	movw	r30, r14
     9b2:	82 81       	ldd	r24, Z+2	; 0x02
     9b4:	0e 94 c0 03 	call	0x780	; 0x780 <bcd2c>
     9b8:	8a 83       	std	Y+2, r24	; 0x02
     9ba:	f7 01       	movw	r30, r14
     9bc:	84 81       	ldd	r24, Z+4	; 0x04
     9be:	0e 94 c0 03 	call	0x780	; 0x780 <bcd2c>
     9c2:	18 2f       	mov	r17, r24
     9c4:	f7 01       	movw	r30, r14
     9c6:	85 81       	ldd	r24, Z+5	; 0x05
     9c8:	0e 94 c0 03 	call	0x780	; 0x780 <bcd2c>
     9cc:	a8 2e       	mov	r10, r24
     9ce:	f7 01       	movw	r30, r14
     9d0:	86 81       	ldd	r24, Z+6	; 0x06
     9d2:	0e 94 c0 03 	call	0x780	; 0x780 <bcd2c>
     9d6:	b8 2e       	mov	r11, r24
     9d8:	f7 01       	movw	r30, r14
     9da:	87 81       	ldd	r24, Z+7	; 0x07
     9dc:	0e 94 c0 03 	call	0x780	; 0x780 <bcd2c>
     9e0:	86 95       	lsr	r24
     9e2:	28 2f       	mov	r18, r24
     9e4:	30 e0       	ldi	r19, 0x00	; 0
     9e6:	ad ea       	ldi	r26, 0xAD	; 173
     9e8:	be e8       	ldi	r27, 0x8E	; 142
     9ea:	0e 94 16 0a 	call	0x142c	; 0x142c <__umulhisi3>
     9ee:	6b 01       	movw	r12, r22
     9f0:	7c 01       	movw	r14, r24
     9f2:	80 e0       	ldi	r24, 0x00	; 0
     9f4:	b8 16       	cp	r11, r24
     9f6:	91 f0       	breq	.+36     	; 0xa1c <rx8900_time_regs_to_count+0x98>
     9f8:	98 2f       	mov	r25, r24
     9fa:	93 70       	andi	r25, 0x03	; 3
     9fc:	39 f4       	brne	.+14     	; 0xa0c <rx8900_time_regs_to_count+0x88>
     9fe:	fe e6       	ldi	r31, 0x6E	; 110
     a00:	cf 0e       	add	r12, r31
     a02:	f1 e0       	ldi	r31, 0x01	; 1
     a04:	df 1e       	adc	r13, r31
     a06:	e1 1c       	adc	r14, r1
     a08:	f1 1c       	adc	r15, r1
     a0a:	06 c0       	rjmp	.+12     	; 0xa18 <rx8900_time_regs_to_count+0x94>
     a0c:	9d e6       	ldi	r25, 0x6D	; 109
     a0e:	c9 0e       	add	r12, r25
     a10:	91 e0       	ldi	r25, 0x01	; 1
     a12:	d9 1e       	adc	r13, r25
     a14:	e1 1c       	adc	r14, r1
     a16:	f1 1c       	adc	r15, r1
     a18:	8f 5f       	subi	r24, 0xFF	; 255
     a1a:	ec cf       	rjmp	.-40     	; 0x9f4 <rx8900_time_regs_to_count+0x70>
     a1c:	01 e0       	ldi	r16, 0x01	; 1
     a1e:	0a 15       	cp	r16, r10
     a20:	50 f4       	brcc	.+20     	; 0xa36 <rx8900_time_regs_to_count+0xb2>
     a22:	6b 2d       	mov	r22, r11
     a24:	80 2f       	mov	r24, r16
     a26:	0e 94 94 02 	call	0x528	; 0x528 <daysInMonth>
     a2a:	c8 0e       	add	r12, r24
     a2c:	d1 1c       	adc	r13, r1
     a2e:	e1 1c       	adc	r14, r1
     a30:	f1 1c       	adc	r15, r1
     a32:	0f 5f       	subi	r16, 0xFF	; 255
     a34:	f4 cf       	rjmp	.-24     	; 0xa1e <rx8900_time_regs_to_count+0x9a>
     a36:	81 2f       	mov	r24, r17
     a38:	90 e0       	ldi	r25, 0x00	; 0
     a3a:	a0 e0       	ldi	r26, 0x00	; 0
     a3c:	b0 e0       	ldi	r27, 0x00	; 0
     a3e:	01 97       	sbiw	r24, 0x01	; 1
     a40:	a1 09       	sbc	r26, r1
     a42:	b1 09       	sbc	r27, r1
     a44:	c8 0e       	add	r12, r24
     a46:	d9 1e       	adc	r13, r25
     a48:	ea 1e       	adc	r14, r26
     a4a:	fb 1e       	adc	r15, r27
     a4c:	cb 82       	std	Y+3, r12	; 0x03
     a4e:	dc 82       	std	Y+4, r13	; 0x04
     a50:	ed 82       	std	Y+5, r14	; 0x05
     a52:	fe 82       	std	Y+6, r15	; 0x06
     a54:	df 91       	pop	r29
     a56:	cf 91       	pop	r28
     a58:	1f 91       	pop	r17
     a5a:	0f 91       	pop	r16
     a5c:	ff 90       	pop	r15
     a5e:	ef 90       	pop	r14
     a60:	df 90       	pop	r13
     a62:	cf 90       	pop	r12
     a64:	bf 90       	pop	r11
     a66:	af 90       	pop	r10
     a68:	08 95       	ret

00000a6a <rx8900_reset>:
     a6a:	cf 93       	push	r28
     a6c:	df 93       	push	r29
     a6e:	1f 92       	push	r1
     a70:	cd b7       	in	r28, 0x3d	; 61
     a72:	de b7       	in	r29, 0x3e	; 62
     a74:	81 e4       	ldi	r24, 0x41	; 65
     a76:	89 83       	std	Y+1, r24	; 0x01
     a78:	21 e0       	ldi	r18, 0x01	; 1
     a7a:	ae 01       	movw	r20, r28
     a7c:	4f 5f       	subi	r20, 0xFF	; 255
     a7e:	5f 4f       	sbci	r21, 0xFF	; 255
     a80:	6f e0       	ldi	r22, 0x0F	; 15
     a82:	82 e3       	ldi	r24, 0x32	; 50
     a84:	0e 94 6a 09 	call	0x12d4	; 0x12d4 <USI_TWI_Write_Data>
     a88:	0f 90       	pop	r0
     a8a:	df 91       	pop	r29
     a8c:	cf 91       	pop	r28
     a8e:	08 95       	ret

00000a90 <figure8PatternUntilTriggerReleased>:
     a90:	0f 93       	push	r16
     a92:	1f 93       	push	r17
     a94:	cf 93       	push	r28
     a96:	df 93       	push	r29
     a98:	c0 e0       	ldi	r28, 0x00	; 0
     a9a:	80 91 00 0d 	lds	r24, 0x0D00	; 0x800d00 <__TEXT_REGION_LENGTH__+0x700d00>
     a9e:	86 68       	ori	r24, 0x86	; 134
     aa0:	80 93 00 0d 	sts	0x0D00, r24	; 0x800d00 <__TEXT_REGION_LENGTH__+0x700d00>
     aa4:	d0 e0       	ldi	r29, 0x00	; 0
     aa6:	0c 2f       	mov	r16, r28
     aa8:	10 e0       	ldi	r17, 0x00	; 0
     aaa:	0a 5f       	subi	r16, 0xFA	; 250
     aac:	1f 4f       	sbci	r17, 0xFF	; 255
     aae:	07 70       	andi	r16, 0x07	; 7
     ab0:	11 27       	eor	r17, r17
     ab2:	6c 2f       	mov	r22, r28
     ab4:	8d 2f       	mov	r24, r29
     ab6:	0e 94 29 02 	call	0x452	; 0x452 <figure8On>
     aba:	60 2f       	mov	r22, r16
     abc:	81 e0       	ldi	r24, 0x01	; 1
     abe:	8d 0f       	add	r24, r29
     ac0:	0e 94 29 02 	call	0x452	; 0x452 <figure8On>
     ac4:	de 5f       	subi	r29, 0xFE	; 254
     ac6:	dc 30       	cpi	r29, 0x0C	; 12
     ac8:	a1 f7       	brne	.-24     	; 0xab2 <figure8PatternUntilTriggerReleased+0x22>
     aca:	88 95       	sleep
     acc:	cf 5f       	subi	r28, 0xFF	; 255
     ace:	c8 30       	cpi	r28, 0x08	; 8
     ad0:	09 f4       	brne	.+2      	; 0xad4 <figure8PatternUntilTriggerReleased+0x44>
     ad2:	c0 e0       	ldi	r28, 0x00	; 0
     ad4:	80 91 48 06 	lds	r24, 0x0648	; 0x800648 <__TEXT_REGION_LENGTH__+0x700648>
     ad8:	87 fd       	sbrc	r24, 7
     ada:	df cf       	rjmp	.-66     	; 0xa9a <figure8PatternUntilTriggerReleased+0xa>
     adc:	df 91       	pop	r29
     ade:	cf 91       	pop	r28
     ae0:	1f 91       	pop	r17
     ae2:	0f 91       	pop	r16
     ae4:	08 95       	ret

00000ae6 <showEmptyBatteryIcon>:
     ae6:	80 e0       	ldi	r24, 0x00	; 0
     ae8:	0e 94 02 02 	call	0x404	; 0x404 <battSegOn>
     aec:	83 e0       	ldi	r24, 0x03	; 3
     aee:	0c 94 02 02 	jmp	0x404	; 0x404 <battSegOn>

00000af2 <blink_lcd_forever>:
     af2:	0e 94 58 02 	call	0x4b0	; 0x4b0 <lcd_blank>
     af6:	88 95       	sleep
     af8:	0e 94 5e 02 	call	0x4bc	; 0x4bc <lcd_unblank>
     afc:	88 95       	sleep
     afe:	f9 cf       	rjmp	.-14     	; 0xaf2 <blink_lcd_forever>

00000b00 <where_has_the_time_gone_mode>:
     b00:	0e 94 c8 03 	call	0x790	; 0x790 <showClockTime>
     b04:	0e 94 79 05 	call	0xaf2	; 0xaf2 <blink_lcd_forever>

00000b08 <clockErrorMode>:
     b08:	0e 94 6f 01 	call	0x2de	; 0x2de <showClocError>
     b0c:	0e 94 79 05 	call	0xaf2	; 0xaf2 <blink_lcd_forever>

00000b10 <eepromErrorMode>:
     b10:	0e 94 93 01 	call	0x326	; 0x326 <showEEProError>
     b14:	0e 94 79 05 	call	0xaf2	; 0xaf2 <blink_lcd_forever>

00000b18 <low_battery_mode>:
     b18:	e0 e0       	ldi	r30, 0x00	; 0
     b1a:	fd e0       	ldi	r31, 0x0D	; 13
     b1c:	80 81       	ld	r24, Z
     b1e:	86 68       	ori	r24, 0x86	; 134
     b20:	80 83       	st	Z, r24
     b22:	0e 94 73 05 	call	0xae6	; 0xae6 <showEmptyBatteryIcon>
     b26:	0e 94 79 05 	call	0xaf2	; 0xaf2 <blink_lcd_forever>

00000b2a <longNowMode>:
     b2a:	69 e0       	ldi	r22, 0x09	; 9
     b2c:	86 e0       	ldi	r24, 0x06	; 6
     b2e:	0e 94 c8 00 	call	0x190	; 0x190 <digitShow>
     b32:	69 e0       	ldi	r22, 0x09	; 9
     b34:	87 e0       	ldi	r24, 0x07	; 7
     b36:	0e 94 c8 00 	call	0x190	; 0x190 <digitShow>
     b3a:	69 e0       	ldi	r22, 0x09	; 9
     b3c:	88 e0       	ldi	r24, 0x08	; 8
     b3e:	0e 94 c8 00 	call	0x190	; 0x190 <digitShow>
     b42:	69 e0       	ldi	r22, 0x09	; 9
     b44:	89 e0       	ldi	r24, 0x09	; 9
     b46:	0e 94 c8 00 	call	0x190	; 0x190 <digitShow>
     b4a:	69 e0       	ldi	r22, 0x09	; 9
     b4c:	8a e0       	ldi	r24, 0x0A	; 10
     b4e:	0e 94 c8 00 	call	0x190	; 0x190 <digitShow>
     b52:	69 e0       	ldi	r22, 0x09	; 9
     b54:	8b e0       	ldi	r24, 0x0B	; 11
     b56:	0e 94 c8 00 	call	0x190	; 0x190 <digitShow>
     b5a:	69 e0       	ldi	r22, 0x09	; 9
     b5c:	80 e0       	ldi	r24, 0x00	; 0
     b5e:	0e 94 c8 00 	call	0x190	; 0x190 <digitShow>
     b62:	65 e0       	ldi	r22, 0x05	; 5
     b64:	81 e0       	ldi	r24, 0x01	; 1
     b66:	0e 94 c8 00 	call	0x190	; 0x190 <digitShow>
     b6a:	69 e0       	ldi	r22, 0x09	; 9
     b6c:	82 e0       	ldi	r24, 0x02	; 2
     b6e:	0e 94 c8 00 	call	0x190	; 0x190 <digitShow>
     b72:	65 e0       	ldi	r22, 0x05	; 5
     b74:	83 e0       	ldi	r24, 0x03	; 3
     b76:	0e 94 c8 00 	call	0x190	; 0x190 <digitShow>
     b7a:	63 e0       	ldi	r22, 0x03	; 3
     b7c:	84 e0       	ldi	r24, 0x04	; 4
     b7e:	0e 94 c8 00 	call	0x190	; 0x190 <digitShow>
     b82:	62 e0       	ldi	r22, 0x02	; 2
     b84:	85 e0       	ldi	r24, 0x05	; 5
     b86:	0e 94 c8 00 	call	0x190	; 0x190 <digitShow>
     b8a:	0e 94 79 05 	call	0xaf2	; 0xaf2 <blink_lcd_forever>

00000b8e <showDashes>:
     b8e:	cf 93       	push	r28
     b90:	c0 e0       	ldi	r28, 0x00	; 0
     b92:	8c 2f       	mov	r24, r28
     b94:	0e 94 53 01 	call	0x2a6	; 0x2a6 <showDash>
     b98:	cf 5f       	subi	r28, 0xFF	; 255
     b9a:	cc 30       	cpi	r28, 0x0C	; 12
     b9c:	d1 f7       	brne	.-12     	; 0xb92 <showDashes+0x4>
     b9e:	cf 91       	pop	r28
     ba0:	08 95       	ret

00000ba2 <showZeros>:
     ba2:	cf 93       	push	r28
     ba4:	c6 e0       	ldi	r28, 0x06	; 6
     ba6:	60 e0       	ldi	r22, 0x00	; 0
     ba8:	8c 2f       	mov	r24, r28
     baa:	0e 94 c8 00 	call	0x190	; 0x190 <digitShow>
     bae:	cf 5f       	subi	r28, 0xFF	; 255
     bb0:	cc 30       	cpi	r28, 0x0C	; 12
     bb2:	c9 f7       	brne	.-14     	; 0xba6 <showZeros+0x4>
     bb4:	60 e0       	ldi	r22, 0x00	; 0
     bb6:	80 e0       	ldi	r24, 0x00	; 0
     bb8:	0e 94 c8 00 	call	0x190	; 0x190 <digitShow>
     bbc:	60 e0       	ldi	r22, 0x00	; 0
     bbe:	81 e0       	ldi	r24, 0x01	; 1
     bc0:	0e 94 c8 00 	call	0x190	; 0x190 <digitShow>
     bc4:	60 e0       	ldi	r22, 0x00	; 0
     bc6:	82 e0       	ldi	r24, 0x02	; 2
     bc8:	0e 94 c8 00 	call	0x190	; 0x190 <digitShow>
     bcc:	60 e0       	ldi	r22, 0x00	; 0
     bce:	83 e0       	ldi	r24, 0x03	; 3
     bd0:	0e 94 c8 00 	call	0x190	; 0x190 <digitShow>
     bd4:	60 e0       	ldi	r22, 0x00	; 0
     bd6:	84 e0       	ldi	r24, 0x04	; 4
     bd8:	0e 94 c8 00 	call	0x190	; 0x190 <digitShow>
     bdc:	60 e0       	ldi	r22, 0x00	; 0
     bde:	85 e0       	ldi	r24, 0x05	; 5
     be0:	cf 91       	pop	r28
     be2:	0c 94 c8 00 	jmp	0x190	; 0x190 <digitShow>

00000be6 <softwareReset>:
     be6:	88 ed       	ldi	r24, 0xD8	; 216
     be8:	84 bf       	out	0x34, r24	; 52
     bea:	81 e0       	ldi	r24, 0x01	; 1
     bec:	80 93 79 00 	sts	0x0079, r24	; 0x800079 <__TEXT_REGION_LENGTH__+0x700079>

00000bf0 <run>:
     bf0:	4f 92       	push	r4
     bf2:	5f 92       	push	r5
     bf4:	6f 92       	push	r6
     bf6:	7f 92       	push	r7
     bf8:	8f 92       	push	r8
     bfa:	9f 92       	push	r9
     bfc:	af 92       	push	r10
     bfe:	bf 92       	push	r11
     c00:	cf 92       	push	r12
     c02:	df 92       	push	r13
     c04:	ef 92       	push	r14
     c06:	ff 92       	push	r15
     c08:	0f 93       	push	r16
     c0a:	1f 93       	push	r17
     c0c:	cf 93       	push	r28
     c0e:	df 93       	push	r29
     c10:	6b 01       	movw	r12, r22
     c12:	e8 2e       	mov	r14, r24
     c14:	d4 2f       	mov	r29, r20
     c16:	12 2f       	mov	r17, r18
     c18:	80 2f       	mov	r24, r16
     c1a:	6a e0       	ldi	r22, 0x0A	; 10
     c1c:	0e 94 e7 09 	call	0x13ce	; 0x13ce <__udivmodqi4>
     c20:	c8 2f       	mov	r28, r24
     c22:	8a e0       	ldi	r24, 0x0A	; 10
     c24:	c8 9f       	mul	r28, r24
     c26:	00 19       	sub	r16, r0
     c28:	11 24       	eor	r1, r1
     c2a:	2a e0       	ldi	r18, 0x0A	; 10
     c2c:	62 2e       	mov	r6, r18
     c2e:	71 2c       	mov	r7, r1
     c30:	81 2c       	mov	r8, r1
     c32:	3a e0       	ldi	r19, 0x0A	; 10
     c34:	b3 2e       	mov	r11, r19
     c36:	46 ef       	ldi	r20, 0xF6	; 246
     c38:	a4 2e       	mov	r10, r20
     c3a:	90 e4       	ldi	r25, 0x40	; 64
     c3c:	c9 16       	cp	r12, r25
     c3e:	92 e4       	ldi	r25, 0x42	; 66
     c40:	d9 06       	cpc	r13, r25
     c42:	9f e0       	ldi	r25, 0x0F	; 15
     c44:	e9 06       	cpc	r14, r25
     c46:	08 f0       	brcs	.+2      	; 0xc4a <run+0x5a>
     c48:	90 c0       	rjmp	.+288    	; 0xd6a <run+0x17a>
     c4a:	ec 2d       	mov	r30, r12
     c4c:	7d 2d       	mov	r23, r13
     c4e:	8e 2d       	mov	r24, r14
     c50:	96 e0       	ldi	r25, 0x06	; 6
     c52:	f9 2e       	mov	r15, r25
     c54:	6e 2f       	mov	r22, r30
     c56:	48 2d       	mov	r20, r8
     c58:	93 01       	movw	r18, r6
     c5a:	0e 94 f3 09 	call	0x13e6	; 0x13e6 <__udivmodpsi4>
     c5e:	96 2e       	mov	r9, r22
     c60:	47 2e       	mov	r4, r23
     c62:	58 2e       	mov	r5, r24
     c64:	6e 2f       	mov	r22, r30
     c66:	9a e0       	ldi	r25, 0x0A	; 10
     c68:	99 9e       	mul	r9, r25
     c6a:	60 19       	sub	r22, r0
     c6c:	11 24       	eor	r1, r1
     c6e:	8f 2d       	mov	r24, r15
     c70:	0e 94 c8 00 	call	0x190	; 0x190 <digitShow>
     c74:	f3 94       	inc	r15
     c76:	e9 2d       	mov	r30, r9
     c78:	74 2d       	mov	r23, r4
     c7a:	85 2d       	mov	r24, r5
     c7c:	9c e0       	ldi	r25, 0x0C	; 12
     c7e:	f9 12       	cpse	r15, r25
     c80:	e9 cf       	rjmp	.-46     	; 0xc54 <run+0x64>
     c82:	d8 31       	cpi	r29, 0x18	; 24
     c84:	08 f0       	brcs	.+2      	; 0xc88 <run+0x98>
     c86:	47 c0       	rjmp	.+142    	; 0xd16 <run+0x126>
     c88:	8d 2f       	mov	r24, r29
     c8a:	6b 2d       	mov	r22, r11
     c8c:	0e 94 e7 09 	call	0x13ce	; 0x13ce <__udivmodqi4>
     c90:	f8 2e       	mov	r15, r24
     c92:	6d 2f       	mov	r22, r29
     c94:	8a 9d       	mul	r24, r10
     c96:	60 0d       	add	r22, r0
     c98:	11 24       	eor	r1, r1
     c9a:	84 e0       	ldi	r24, 0x04	; 4
     c9c:	0e 94 c8 00 	call	0x190	; 0x190 <digitShow>
     ca0:	6f 2d       	mov	r22, r15
     ca2:	85 e0       	ldi	r24, 0x05	; 5
     ca4:	0e 94 c8 00 	call	0x190	; 0x190 <digitShow>
     ca8:	1c 33       	cpi	r17, 0x3C	; 60
     caa:	90 f5       	brcc	.+100    	; 0xd10 <run+0x120>
     cac:	81 2f       	mov	r24, r17
     cae:	6b 2d       	mov	r22, r11
     cb0:	0e 94 e7 09 	call	0x13ce	; 0x13ce <__udivmodqi4>
     cb4:	f8 2e       	mov	r15, r24
     cb6:	61 2f       	mov	r22, r17
     cb8:	8a 9d       	mul	r24, r10
     cba:	60 0d       	add	r22, r0
     cbc:	11 24       	eor	r1, r1
     cbe:	82 e0       	ldi	r24, 0x02	; 2
     cc0:	0e 94 c8 00 	call	0x190	; 0x190 <digitShow>
     cc4:	6f 2d       	mov	r22, r15
     cc6:	83 e0       	ldi	r24, 0x03	; 3
     cc8:	0e 94 c8 00 	call	0x190	; 0x190 <digitShow>
     ccc:	c6 30       	cpi	r28, 0x06	; 6
     cce:	80 f4       	brcc	.+32     	; 0xcf0 <run+0x100>
     cd0:	6c 2f       	mov	r22, r28
     cd2:	81 e0       	ldi	r24, 0x01	; 1
     cd4:	0e 94 c8 00 	call	0x190	; 0x190 <digitShow>
     cd8:	0a 30       	cpi	r16, 0x0A	; 10
     cda:	38 f4       	brcc	.+14     	; 0xcea <run+0xfa>
     cdc:	60 2f       	mov	r22, r16
     cde:	80 e0       	ldi	r24, 0x00	; 0
     ce0:	0e 94 c8 00 	call	0x190	; 0x190 <digitShow>
     ce4:	88 95       	sleep
     ce6:	0f 5f       	subi	r16, 0xFF	; 255
     ce8:	f7 cf       	rjmp	.-18     	; 0xcd8 <run+0xe8>
     cea:	cf 5f       	subi	r28, 0xFF	; 255
     cec:	00 e0       	ldi	r16, 0x00	; 0
     cee:	ee cf       	rjmp	.-36     	; 0xccc <run+0xdc>
     cf0:	1f 5f       	subi	r17, 0xFF	; 255
     cf2:	92 9b       	sbis	0x12, 2	; 18
     cf4:	07 c0       	rjmp	.+14     	; 0xd04 <run+0x114>
     cf6:	82 b3       	in	r24, 0x12	; 18
     cf8:	83 fb       	bst	r24, 3
     cfa:	99 27       	eor	r25, r25
     cfc:	90 f9       	bld	r25, 0
     cfe:	81 e0       	ldi	r24, 0x01	; 1
     d00:	89 27       	eor	r24, r25
     d02:	01 c0       	rjmp	.+2      	; 0xd06 <run+0x116>
     d04:	81 e0       	ldi	r24, 0x01	; 1
     d06:	c0 e0       	ldi	r28, 0x00	; 0
     d08:	88 23       	and	r24, r24
     d0a:	71 f2       	breq	.-100    	; 0xca8 <run+0xb8>
     d0c:	0e 94 f3 05 	call	0xbe6	; 0xbe6 <softwareReset>
     d10:	df 5f       	subi	r29, 0xFF	; 255
     d12:	10 e0       	ldi	r17, 0x00	; 0
     d14:	b6 cf       	rjmp	.-148    	; 0xc82 <run+0x92>
     d16:	8f ef       	ldi	r24, 0xFF	; 255
     d18:	c8 1a       	sub	r12, r24
     d1a:	d8 0a       	sbc	r13, r24
     d1c:	e8 0a       	sbc	r14, r24
     d1e:	ae 2d       	mov	r26, r14
     d20:	c6 01       	movw	r24, r12
     d22:	87 70       	andi	r24, 0x07	; 7
     d24:	99 27       	eor	r25, r25
     d26:	aa 27       	eor	r26, r26
     d28:	01 97       	sbiw	r24, 0x01	; 1
     d2a:	a1 05       	cpc	r26, r1
     d2c:	31 f4       	brne	.+12     	; 0xd3a <run+0x14a>
     d2e:	0e 94 64 02 	call	0x4c8	; 0x4c8 <adc_read_vcc_x_10>
     d32:	88 31       	cpi	r24, 0x18	; 24
     d34:	10 f4       	brcc	.+4      	; 0xd3a <run+0x14a>
     d36:	0e 94 8c 05 	call	0xb18	; 0xb18 <low_battery_mode>
     d3a:	ae 2d       	mov	r26, r14
     d3c:	c6 01       	movw	r24, r12
     d3e:	8f 77       	andi	r24, 0x7F	; 127
     d40:	99 27       	eor	r25, r25
     d42:	aa 27       	eor	r26, r26
     d44:	89 2b       	or	r24, r25
     d46:	8a 2b       	or	r24, r26
     d48:	71 f4       	brne	.+28     	; 0xd66 <run+0x176>
     d4a:	80 91 00 0d 	lds	r24, 0x0D00	; 0x800d00 <__TEXT_REGION_LENGTH__+0x700d00>
     d4e:	86 68       	ori	r24, 0x86	; 134
     d50:	80 93 00 0d 	sts	0x0D00, r24	; 0x800d00 <__TEXT_REGION_LENGTH__+0x700d00>
     d54:	0e 94 de 01 	call	0x3bc	; 0x3bc <showc2018JOSH>
     d58:	88 95       	sleep
     d5a:	80 91 00 0d 	lds	r24, 0x0D00	; 0x800d00 <__TEXT_REGION_LENGTH__+0x700d00>
     d5e:	86 68       	ori	r24, 0x86	; 134
     d60:	80 93 00 0d 	sts	0x0D00, r24	; 0x800d00 <__TEXT_REGION_LENGTH__+0x700d00>
     d64:	0f 5f       	subi	r16, 0xFF	; 255
     d66:	d0 e0       	ldi	r29, 0x00	; 0
     d68:	68 cf       	rjmp	.-304    	; 0xc3a <run+0x4a>
     d6a:	df 91       	pop	r29
     d6c:	cf 91       	pop	r28
     d6e:	1f 91       	pop	r17
     d70:	0f 91       	pop	r16
     d72:	ff 90       	pop	r15
     d74:	ef 90       	pop	r14
     d76:	df 90       	pop	r13
     d78:	cf 90       	pop	r12
     d7a:	bf 90       	pop	r11
     d7c:	af 90       	pop	r10
     d7e:	9f 90       	pop	r9
     d80:	8f 90       	pop	r8
     d82:	7f 90       	pop	r7
     d84:	6f 90       	pop	r6
     d86:	5f 90       	pop	r5
     d88:	4f 90       	pop	r4
     d8a:	08 95       	ret

00000d8c <showPinBPhase1>:
     d8c:	cf 93       	push	r28
     d8e:	df 93       	push	r29
     d90:	cd b7       	in	r28, 0x3d	; 61
     d92:	de b7       	in	r29, 0x3e	; 62
     d94:	28 97       	sbiw	r28, 0x08	; 8
     d96:	cd bf       	out	0x3d, r28	; 61
     d98:	de bf       	out	0x3e, r29	; 62
     d9a:	0e 94 05 02 	call	0x40a	; 0x40a <colonLOn>
     d9e:	48 e0       	ldi	r20, 0x08	; 8
     da0:	50 e0       	ldi	r21, 0x00	; 0
     da2:	60 e0       	ldi	r22, 0x00	; 0
     da4:	70 e0       	ldi	r23, 0x00	; 0
     da6:	ce 01       	movw	r24, r28
     da8:	01 96       	adiw	r24, 0x01	; 1
     daa:	0e 94 81 0a 	call	0x1502	; 0x1502 <eeprom_read_block>
     dae:	ce 01       	movw	r24, r28
     db0:	01 96       	adiw	r24, 0x01	; 1
     db2:	0e 94 c8 03 	call	0x790	; 0x790 <showClockTime>
     db6:	28 96       	adiw	r28, 0x08	; 8
     db8:	cd bf       	out	0x3d, r28	; 61
     dba:	de bf       	out	0x3e, r29	; 62
     dbc:	df 91       	pop	r29
     dbe:	cf 91       	pop	r28
     dc0:	08 95       	ret

00000dc2 <showPinBPhase2>:
     dc2:	cf 93       	push	r28
     dc4:	df 93       	push	r29
     dc6:	cd b7       	in	r28, 0x3d	; 61
     dc8:	de b7       	in	r29, 0x3e	; 62
     dca:	28 97       	sbiw	r28, 0x08	; 8
     dcc:	cd bf       	out	0x3d, r28	; 61
     dce:	de bf       	out	0x3e, r29	; 62
     dd0:	0e 94 5f 04 	call	0x8be	; 0x8be <rx8900_check__voltage_24>
     dd4:	81 11       	cpse	r24, r1
     dd6:	0e 94 1d 02 	call	0x43a	; 0x43a <decimalLOn>
     dda:	84 e1       	ldi	r24, 0x14	; 20
     ddc:	90 e0       	ldi	r25, 0x00	; 0
     dde:	0e 94 8d 0a 	call	0x151a	; 0x151a <eeprom_read_byte>
     de2:	81 11       	cpse	r24, r1
     de4:	0e 94 23 02 	call	0x446	; 0x446 <decimalROn>
     de8:	0e 94 11 02 	call	0x422	; 0x422 <colonROn>
     dec:	ce 01       	movw	r24, r28
     dee:	01 96       	adiw	r24, 0x01	; 1
     df0:	0e 94 8e 02 	call	0x51c	; 0x51c <rx8900_time_regs_get>
     df4:	ce 01       	movw	r24, r28
     df6:	01 96       	adiw	r24, 0x01	; 1
     df8:	0e 94 c8 03 	call	0x790	; 0x790 <showClockTime>
     dfc:	28 96       	adiw	r28, 0x08	; 8
     dfe:	cd bf       	out	0x3d, r28	; 61
     e00:	de bf       	out	0x3e, r29	; 62
     e02:	df 91       	pop	r29
     e04:	cf 91       	pop	r28
     e06:	08 95       	ret

00000e08 <showPinBPhase3>:
     e08:	cf 93       	push	r28
     e0a:	0e 94 c2 01 	call	0x384	; 0x384 <showPinBPhase3Text>
     e0e:	0e 94 64 02 	call	0x4c8	; 0x4c8 <adc_read_vcc_x_10>
     e12:	6a e0       	ldi	r22, 0x0A	; 10
     e14:	0e 94 e7 09 	call	0x13ce	; 0x13ce <__udivmodqi4>
     e18:	c9 2f       	mov	r28, r25
     e1a:	6b e0       	ldi	r22, 0x0B	; 11
     e1c:	0e 94 fb 00 	call	0x1f6	; 0x1f6 <digitOn>
     e20:	6a e0       	ldi	r22, 0x0A	; 10
     e22:	8c 2f       	mov	r24, r28
     e24:	0e 94 fb 00 	call	0x1f6	; 0x1f6 <digitOn>
     e28:	62 e0       	ldi	r22, 0x02	; 2
     e2a:	81 e0       	ldi	r24, 0x01	; 1
     e2c:	0e 94 fb 00 	call	0x1f6	; 0x1f6 <digitOn>
     e30:	61 e0       	ldi	r22, 0x01	; 1
     e32:	80 e0       	ldi	r24, 0x00	; 0
     e34:	0e 94 fb 00 	call	0x1f6	; 0x1f6 <digitOn>
     e38:	60 e0       	ldi	r22, 0x00	; 0
     e3a:	81 e0       	ldi	r24, 0x01	; 1
     e3c:	cf 91       	pop	r28
     e3e:	0c 94 fb 00 	jmp	0x1f6	; 0x1f6 <digitOn>

00000e42 <showPinT>:
     e42:	cf 93       	push	r28
     e44:	df 93       	push	r29
     e46:	cd b7       	in	r28, 0x3d	; 61
     e48:	de b7       	in	r29, 0x3e	; 62
     e4a:	28 97       	sbiw	r28, 0x08	; 8
     e4c:	cd bf       	out	0x3d, r28	; 61
     e4e:	de bf       	out	0x3e, r29	; 62
     e50:	82 e1       	ldi	r24, 0x12	; 18
     e52:	90 e0       	ldi	r25, 0x00	; 0
     e54:	0e 94 8d 0a 	call	0x151a	; 0x151a <eeprom_read_byte>
     e58:	88 23       	and	r24, r24
     e5a:	89 f0       	breq	.+34     	; 0xe7e <showPinT+0x3c>
     e5c:	48 e0       	ldi	r20, 0x08	; 8
     e5e:	50 e0       	ldi	r21, 0x00	; 0
     e60:	6a e0       	ldi	r22, 0x0A	; 10
     e62:	70 e0       	ldi	r23, 0x00	; 0
     e64:	ce 01       	movw	r24, r28
     e66:	01 96       	adiw	r24, 0x01	; 1
     e68:	0e 94 81 0a 	call	0x1502	; 0x1502 <eeprom_read_block>
     e6c:	0e 94 05 02 	call	0x40a	; 0x40a <colonLOn>
     e70:	0e 94 11 02 	call	0x422	; 0x422 <colonROn>
     e74:	ce 01       	movw	r24, r28
     e76:	01 96       	adiw	r24, 0x01	; 1
     e78:	0e 94 c8 03 	call	0x790	; 0x790 <showClockTime>
     e7c:	02 c0       	rjmp	.+4      	; 0xe82 <showPinT+0x40>
     e7e:	0e 94 57 01 	call	0x2ae	; 0x2ae <showNoTrig>
     e82:	28 96       	adiw	r28, 0x08	; 8
     e84:	cd bf       	out	0x3d, r28	; 61
     e86:	de bf       	out	0x3e, r29	; 62
     e88:	df 91       	pop	r29
     e8a:	cf 91       	pop	r28
     e8c:	08 95       	ret

00000e8e <main>:
     e8e:	cf 93       	push	r28
     e90:	df 93       	push	r29
     e92:	cd b7       	in	r28, 0x3d	; 61
     e94:	de b7       	in	r29, 0x3e	; 62
     e96:	6e 97       	sbiw	r28, 0x1e	; 30
     e98:	cd bf       	out	0x3d, r28	; 61
     e9a:	de bf       	out	0x3e, r29	; 62
     e9c:	ff 24       	eor	r15, r15
     e9e:	f3 94       	inc	r15
     ea0:	f0 92 43 00 	sts	0x0043, r15	; 0x800043 <__TEXT_REGION_LENGTH__+0x700043>
     ea4:	0e 94 c7 02 	call	0x58e	; 0x58e <disableUnusedIOPins>
     ea8:	0e 94 17 03 	call	0x62e	; 0x62e <triggerPinDisable>
     eac:	0e 94 64 09 	call	0x12c8	; 0x12c8 <USI_TWI_Master_Initialise>
     eb0:	0e 94 e9 02 	call	0x5d2	; 0x5d2 <initDiagnosticPins>
     eb4:	80 e2       	ldi	r24, 0x20	; 32
     eb6:	90 e0       	ldi	r25, 0x00	; 0
     eb8:	0e 94 b7 02 	call	0x56e	; 0x56e <ReadSignatureByte>
     ebc:	80 93 4c 02 	sts	0x024C, r24	; 0x80024c <__TEXT_REGION_LENGTH__+0x70024c>
     ec0:	81 e2       	ldi	r24, 0x21	; 33
     ec2:	90 e0       	ldi	r25, 0x00	; 0
     ec4:	0e 94 b7 02 	call	0x56e	; 0x56e <ReadSignatureByte>
     ec8:	80 93 4d 02 	sts	0x024D, r24	; 0x80024d <__TEXT_REGION_LENGTH__+0x70024d>
     ecc:	84 e1       	ldi	r24, 0x14	; 20
     ece:	80 93 41 02 	sts	0x0241, r24	; 0x800241 <__TEXT_REGION_LENGTH__+0x700241>
     ed2:	82 e0       	ldi	r24, 0x02	; 2
     ed4:	80 93 42 02 	sts	0x0242, r24	; 0x800242 <__TEXT_REGION_LENGTH__+0x700242>
     ed8:	10 92 60 02 	sts	0x0260, r1	; 0x800260 <__TEXT_REGION_LENGTH__+0x700260>
     edc:	80 e1       	ldi	r24, 0x10	; 16
     ede:	80 93 61 02 	sts	0x0261, r24	; 0x800261 <__TEXT_REGION_LENGTH__+0x700261>
     ee2:	83 e0       	ldi	r24, 0x03	; 3
     ee4:	80 93 72 00 	sts	0x0072, r24	; 0x800072 <__TEXT_REGION_LENGTH__+0x700072>
     ee8:	0e 94 bf 02 	call	0x57e	; 0x57e <prr_init>
     eec:	18 ed       	ldi	r17, 0xD8	; 216
     eee:	14 bf       	out	0x34, r17	; 52
     ef0:	f0 92 96 00 	sts	0x0096, r15	; 0x800096 <__TEXT_REGION_LENGTH__+0x700096>
     ef4:	0e 94 aa 02 	call	0x554	; 0x554 <lcd_init>
     ef8:	14 bf       	out	0x34, r17	; 52
     efa:	80 91 a2 00 	lds	r24, 0x00A2	; 0x8000a2 <__TEXT_REGION_LENGTH__+0x7000a2>
     efe:	81 60       	ori	r24, 0x01	; 1
     f00:	80 93 a2 00 	sts	0x00A2, r24	; 0x8000a2 <__TEXT_REGION_LENGTH__+0x7000a2>
     f04:	80 91 48 00 	lds	r24, 0x0048	; 0x800048 <__TEXT_REGION_LENGTH__+0x700048>
     f08:	81 7f       	andi	r24, 0xF1	; 241
     f0a:	86 60       	ori	r24, 0x06	; 6
     f0c:	80 93 48 00 	sts	0x0048, r24	; 0x800048 <__TEXT_REGION_LENGTH__+0x700048>
     f10:	80 91 48 00 	lds	r24, 0x0048	; 0x800048 <__TEXT_REGION_LENGTH__+0x700048>
     f14:	81 60       	ori	r24, 0x01	; 1
     f16:	80 93 48 00 	sts	0x0048, r24	; 0x800048 <__TEXT_REGION_LENGTH__+0x700048>
     f1a:	0e 94 45 03 	call	0x68a	; 0x68a <initFlash>
     f1e:	0e 94 fe 02 	call	0x5fc	; 0x5fc <output1onFOEpin>
     f22:	0e 94 f2 02 	call	0x5e4	; 0x5e4 <FOUT_in_pin_enable>
     f26:	78 94       	sei
     f28:	0e 94 c7 05 	call	0xb8e	; 0xb8e <showDashes>
     f2c:	2f e7       	ldi	r18, 0x7F	; 127
     f2e:	8a e1       	ldi	r24, 0x1A	; 26
     f30:	96 e0       	ldi	r25, 0x06	; 6
     f32:	21 50       	subi	r18, 0x01	; 1
     f34:	80 40       	sbci	r24, 0x00	; 0
     f36:	90 40       	sbci	r25, 0x00	; 0
     f38:	e1 f7       	brne	.-8      	; 0xf32 <main+0xa4>
     f3a:	00 c0       	rjmp	.+0      	; 0xf3c <main+0xae>
     f3c:	00 00       	nop
     f3e:	0e 94 ad 03 	call	0x75a	; 0x75a <rx8900_fout_1Hz>
     f42:	0e 94 4d 04 	call	0x89a	; 0x89a <rx8900_open_MOS>
     f46:	80 91 00 0d 	lds	r24, 0x0D00	; 0x800d00 <__TEXT_REGION_LENGTH__+0x700d00>
     f4a:	86 68       	ori	r24, 0x86	; 134
     f4c:	80 93 00 0d 	sts	0x0D00, r24	; 0x800d00 <__TEXT_REGION_LENGTH__+0x700d00>
     f50:	92 99       	sbic	0x12, 2	; 18
     f52:	14 c0       	rjmp	.+40     	; 0xf7c <main+0xee>
     f54:	0e 94 c6 06 	call	0xd8c	; 0xd8c <showPinBPhase1>
     f58:	88 95       	sleep
     f5a:	80 91 00 0d 	lds	r24, 0x0D00	; 0x800d00 <__TEXT_REGION_LENGTH__+0x700d00>
     f5e:	86 68       	ori	r24, 0x86	; 134
     f60:	80 93 00 0d 	sts	0x0D00, r24	; 0x800d00 <__TEXT_REGION_LENGTH__+0x700d00>
     f64:	0e 94 e1 06 	call	0xdc2	; 0xdc2 <showPinBPhase2>
     f68:	88 95       	sleep
     f6a:	80 91 00 0d 	lds	r24, 0x0D00	; 0x800d00 <__TEXT_REGION_LENGTH__+0x700d00>
     f6e:	86 68       	ori	r24, 0x86	; 134
     f70:	80 93 00 0d 	sts	0x0D00, r24	; 0x800d00 <__TEXT_REGION_LENGTH__+0x700d00>
     f74:	0e 94 04 07 	call	0xe08	; 0xe08 <showPinBPhase3>
     f78:	88 95       	sleep
     f7a:	e5 cf       	rjmp	.-54     	; 0xf46 <main+0xb8>
     f7c:	93 99       	sbic	0x12, 3	; 18
     f7e:	09 c0       	rjmp	.+18     	; 0xf92 <main+0x104>
     f80:	0e 94 21 07 	call	0xe42	; 0xe42 <showPinT>
     f84:	88 95       	sleep
     f86:	80 91 00 0d 	lds	r24, 0x0D00	; 0x800d00 <__TEXT_REGION_LENGTH__+0x700d00>
     f8a:	86 68       	ori	r24, 0x86	; 134
     f8c:	80 93 00 0d 	sts	0x0D00, r24	; 0x800d00 <__TEXT_REGION_LENGTH__+0x700d00>
     f90:	f5 cf       	rjmp	.-22     	; 0xf7c <main+0xee>
     f92:	0e 94 64 02 	call	0x4c8	; 0x4c8 <adc_read_vcc_x_10>
     f96:	88 31       	cpi	r24, 0x18	; 24
     f98:	10 f4       	brcc	.+4      	; 0xf9e <main+0x110>
     f9a:	0e 94 8c 05 	call	0xb18	; 0xb18 <low_battery_mode>
     f9e:	84 e1       	ldi	r24, 0x14	; 20
     fa0:	90 e0       	ldi	r25, 0x00	; 0
     fa2:	0e 94 8d 0a 	call	0x151a	; 0x151a <eeprom_read_byte>
     fa6:	82 30       	cpi	r24, 0x02	; 2
     fa8:	10 f0       	brcs	.+4      	; 0xfae <main+0x120>
     faa:	81 e0       	ldi	r24, 0x01	; 1
     fac:	08 c0       	rjmp	.+16     	; 0xfbe <main+0x130>
     fae:	88 e0       	ldi	r24, 0x08	; 8
     fb0:	90 e0       	ldi	r25, 0x00	; 0
     fb2:	0e 94 8d 0a 	call	0x151a	; 0x151a <eeprom_read_byte>
     fb6:	18 2f       	mov	r17, r24
     fb8:	82 30       	cpi	r24, 0x02	; 2
     fba:	18 f0       	brcs	.+6      	; 0xfc2 <main+0x134>
     fbc:	82 e0       	ldi	r24, 0x02	; 2
     fbe:	0e 94 88 05 	call	0xb10	; 0xb10 <eepromErrorMode>
     fc2:	82 e1       	ldi	r24, 0x12	; 18
     fc4:	90 e0       	ldi	r25, 0x00	; 0
     fc6:	0e 94 8d 0a 	call	0x151a	; 0x151a <eeprom_read_byte>
     fca:	82 30       	cpi	r24, 0x02	; 2
     fcc:	10 f0       	brcs	.+4      	; 0xfd2 <main+0x144>
     fce:	83 e0       	ldi	r24, 0x03	; 3
     fd0:	f6 cf       	rjmp	.-20     	; 0xfbe <main+0x130>
     fd2:	11 11       	cpse	r17, r1
     fd4:	27 c0       	rjmp	.+78     	; 0x1024 <main+0x196>
     fd6:	88 23       	and	r24, r24
     fd8:	11 f0       	breq	.+4      	; 0xfde <main+0x150>
     fda:	84 e0       	ldi	r24, 0x04	; 4
     fdc:	f0 cf       	rjmp	.-32     	; 0xfbe <main+0x130>
     fde:	0e 94 72 04 	call	0x8e4	; 0x8e4 <rx8900_low_voltage_clear>
     fe2:	48 e0       	ldi	r20, 0x08	; 8
     fe4:	50 e0       	ldi	r21, 0x00	; 0
     fe6:	60 e0       	ldi	r22, 0x00	; 0
     fe8:	70 e0       	ldi	r23, 0x00	; 0
     fea:	ce 01       	movw	r24, r28
     fec:	01 96       	adiw	r24, 0x01	; 1
     fee:	0e 94 81 0a 	call	0x1502	; 0x1502 <eeprom_read_block>
     ff2:	ce 01       	movw	r24, r28
     ff4:	01 96       	adiw	r24, 0x01	; 1
     ff6:	0e 94 84 04 	call	0x908	; 0x908 <rx8900_time_regs_valid>
     ffa:	81 11       	cpse	r24, r1
     ffc:	02 c0       	rjmp	.+4      	; 0x1002 <main+0x174>
     ffe:	87 e0       	ldi	r24, 0x07	; 7
    1000:	de cf       	rjmp	.-68     	; 0xfbe <main+0x130>
    1002:	0e 94 35 05 	call	0xa6a	; 0xa6a <rx8900_reset>
    1006:	28 e0       	ldi	r18, 0x08	; 8
    1008:	ae 01       	movw	r20, r28
    100a:	4f 5f       	subi	r20, 0xFF	; 255
    100c:	5f 4f       	sbci	r21, 0xFF	; 255
    100e:	60 e0       	ldi	r22, 0x00	; 0
    1010:	82 e3       	ldi	r24, 0x32	; 50
    1012:	0e 94 6a 09 	call	0x12d4	; 0x12d4 <USI_TWI_Write_Data>
    1016:	0e 94 46 04 	call	0x88c	; 0x88c <rx8900_set_magic>
    101a:	61 e0       	ldi	r22, 0x01	; 1
    101c:	88 e0       	ldi	r24, 0x08	; 8
    101e:	90 e0       	ldi	r25, 0x00	; 0
    1020:	0e 94 9d 0a 	call	0x153a	; 0x153a <eeprom_write_byte>
    1024:	0e 94 5f 04 	call	0x8be	; 0x8be <rx8900_check__voltage_24>
    1028:	88 23       	and	r24, r24
    102a:	29 f0       	breq	.+10     	; 0x1036 <main+0x1a8>
    102c:	61 e0       	ldi	r22, 0x01	; 1
    102e:	84 e1       	ldi	r24, 0x14	; 20
    1030:	90 e0       	ldi	r25, 0x00	; 0
    1032:	0e 94 9d 0a 	call	0x153a	; 0x153a <eeprom_write_byte>
    1036:	84 e1       	ldi	r24, 0x14	; 20
    1038:	90 e0       	ldi	r25, 0x00	; 0
    103a:	0e 94 8d 0a 	call	0x151a	; 0x151a <eeprom_read_byte>
    103e:	88 23       	and	r24, r24
    1040:	a1 f0       	breq	.+40     	; 0x106a <main+0x1dc>
    1042:	82 e1       	ldi	r24, 0x12	; 18
    1044:	90 e0       	ldi	r25, 0x00	; 0
    1046:	0e 94 8d 0a 	call	0x151a	; 0x151a <eeprom_read_byte>
    104a:	88 23       	and	r24, r24
    104c:	61 f0       	breq	.+24     	; 0x1066 <main+0x1d8>
    104e:	48 e0       	ldi	r20, 0x08	; 8
    1050:	50 e0       	ldi	r21, 0x00	; 0
    1052:	6a e0       	ldi	r22, 0x0A	; 10
    1054:	70 e0       	ldi	r23, 0x00	; 0
    1056:	ce 01       	movw	r24, r28
    1058:	01 96       	adiw	r24, 0x01	; 1
    105a:	0e 94 81 0a 	call	0x1502	; 0x1502 <eeprom_read_block>
    105e:	ce 01       	movw	r24, r28
    1060:	01 96       	adiw	r24, 0x01	; 1
    1062:	0e 94 80 05 	call	0xb00	; 0xb00 <where_has_the_time_gone_mode>
    1066:	0e 94 84 05 	call	0xb08	; 0xb08 <clockErrorMode>
    106a:	82 e1       	ldi	r24, 0x12	; 18
    106c:	90 e0       	ldi	r25, 0x00	; 0
    106e:	0e 94 8d 0a 	call	0x151a	; 0x151a <eeprom_read_byte>
    1072:	88 23       	and	r24, r24
    1074:	91 f0       	breq	.+36     	; 0x109a <main+0x20c>
    1076:	48 e0       	ldi	r20, 0x08	; 8
    1078:	50 e0       	ldi	r21, 0x00	; 0
    107a:	6a e0       	ldi	r22, 0x0A	; 10
    107c:	70 e0       	ldi	r23, 0x00	; 0
    107e:	ce 01       	movw	r24, r28
    1080:	09 96       	adiw	r24, 0x09	; 9
    1082:	0e 94 81 0a 	call	0x1502	; 0x1502 <eeprom_read_block>
    1086:	ce 01       	movw	r24, r28
    1088:	09 96       	adiw	r24, 0x09	; 9
    108a:	0e 94 84 04 	call	0x908	; 0x908 <rx8900_time_regs_valid>
    108e:	81 11       	cpse	r24, r1
    1090:	02 c0       	rjmp	.+4      	; 0x1096 <main+0x208>
    1092:	88 e0       	ldi	r24, 0x08	; 8
    1094:	94 cf       	rjmp	.-216    	; 0xfbe <main+0x130>
    1096:	88 95       	sleep
    1098:	49 c0       	rjmp	.+146    	; 0x112c <main+0x29e>
    109a:	0e 94 05 03 	call	0x60a	; 0x60a <triggerPinEnable>
    109e:	11 e0       	ldi	r17, 0x01	; 1
    10a0:	80 91 48 06 	lds	r24, 0x0648	; 0x800648 <__TEXT_REGION_LENGTH__+0x700648>
    10a4:	87 fd       	sbrc	r24, 7
    10a6:	17 c0       	rjmp	.+46     	; 0x10d6 <main+0x248>
    10a8:	f0 2e       	mov	r15, r16
    10aa:	f1 26       	eor	r15, r17
    10ac:	01 11       	cpse	r16, r1
    10ae:	04 c0       	rjmp	.+8      	; 0x10b8 <main+0x22a>
    10b0:	0e 94 05 02 	call	0x40a	; 0x40a <colonLOn>
    10b4:	0e 94 11 02 	call	0x422	; 0x422 <colonROn>
    10b8:	ce 01       	movw	r24, r28
    10ba:	09 96       	adiw	r24, 0x09	; 9
    10bc:	0e 94 8e 02 	call	0x51c	; 0x51c <rx8900_time_regs_get>
    10c0:	ce 01       	movw	r24, r28
    10c2:	09 96       	adiw	r24, 0x09	; 9
    10c4:	0e 94 c8 03 	call	0x790	; 0x790 <showClockTime>
    10c8:	88 95       	sleep
    10ca:	0e 94 0b 02 	call	0x416	; 0x416 <colonLOff>
    10ce:	0e 94 17 02 	call	0x42e	; 0x42e <colonROff>
    10d2:	0f 2d       	mov	r16, r15
    10d4:	e5 cf       	rjmp	.-54     	; 0x10a0 <main+0x212>
    10d6:	8f e4       	ldi	r24, 0x4F	; 79
    10d8:	93 ec       	ldi	r25, 0xC3	; 195
    10da:	01 97       	sbiw	r24, 0x01	; 1
    10dc:	f1 f7       	brne	.-4      	; 0x10da <main+0x24c>
    10de:	00 c0       	rjmp	.+0      	; 0x10e0 <main+0x252>
    10e0:	00 00       	nop
    10e2:	80 91 48 06 	lds	r24, 0x0648	; 0x800648 <__TEXT_REGION_LENGTH__+0x700648>
    10e6:	87 ff       	sbrs	r24, 7
    10e8:	03 c0       	rjmp	.+6      	; 0x10f0 <main+0x262>
    10ea:	0e 94 48 05 	call	0xa90	; 0xa90 <figure8PatternUntilTriggerReleased>
    10ee:	f9 cf       	rjmp	.-14     	; 0x10e2 <main+0x254>
    10f0:	80 91 00 0d 	lds	r24, 0x0D00	; 0x800d00 <__TEXT_REGION_LENGTH__+0x700d00>
    10f4:	86 68       	ori	r24, 0x86	; 134
    10f6:	80 93 00 0d 	sts	0x0D00, r24	; 0x800d00 <__TEXT_REGION_LENGTH__+0x700d00>
    10fa:	0e 94 35 05 	call	0xa6a	; 0xa6a <rx8900_reset>
    10fe:	ce 01       	movw	r24, r28
    1100:	01 96       	adiw	r24, 0x01	; 1
    1102:	0e 94 8e 02 	call	0x51c	; 0x51c <rx8900_time_regs_get>
    1106:	48 e0       	ldi	r20, 0x08	; 8
    1108:	50 e0       	ldi	r21, 0x00	; 0
    110a:	6a e0       	ldi	r22, 0x0A	; 10
    110c:	70 e0       	ldi	r23, 0x00	; 0
    110e:	ce 01       	movw	r24, r28
    1110:	01 96       	adiw	r24, 0x01	; 1
    1112:	0e 94 25 0a 	call	0x144a	; 0x144a <eeprom_write_block>
    1116:	61 e0       	ldi	r22, 0x01	; 1
    1118:	82 e1       	ldi	r24, 0x12	; 18
    111a:	90 e0       	ldi	r25, 0x00	; 0
    111c:	0e 94 9d 0a 	call	0x153a	; 0x153a <eeprom_write_byte>
    1120:	0e 94 17 03 	call	0x62e	; 0x62e <triggerPinDisable>
    1124:	0e 94 d1 05 	call	0xba2	; 0xba2 <showZeros>
    1128:	0e 94 49 03 	call	0x692	; 0x692 <flash>
    112c:	88 95       	sleep
    112e:	ce 01       	movw	r24, r28
    1130:	01 96       	adiw	r24, 0x01	; 1
    1132:	0e 94 8e 02 	call	0x51c	; 0x51c <rx8900_time_regs_get>
    1136:	8f 81       	ldd	r24, Y+7	; 0x07
    1138:	0e 94 c0 03 	call	0x780	; 0x780 <bcd2c>
    113c:	18 2f       	mov	r17, r24
    113e:	88 85       	ldd	r24, Y+8	; 0x08
    1140:	0e 94 c0 03 	call	0x780	; 0x780 <bcd2c>
    1144:	98 2f       	mov	r25, r24
    1146:	91 70       	andi	r25, 0x01	; 1
    1148:	12 33       	cpi	r17, 0x32	; 50
    114a:	18 f0       	brcs	.+6      	; 0x1152 <main+0x2c4>
    114c:	99 23       	and	r25, r25
    114e:	19 f0       	breq	.+6      	; 0x1156 <main+0x2c8>
    1150:	0e c0       	rjmp	.+28     	; 0x116e <main+0x2e0>
    1152:	99 23       	and	r25, r25
    1154:	61 f0       	breq	.+24     	; 0x116e <main+0x2e0>
    1156:	8f 5f       	subi	r24, 0xFF	; 255
    1158:	0e 94 3c 04 	call	0x878	; 0x878 <c2bcd>
    115c:	88 87       	std	Y+8, r24	; 0x08
    115e:	28 e0       	ldi	r18, 0x08	; 8
    1160:	ae 01       	movw	r20, r28
    1162:	4f 5f       	subi	r20, 0xFF	; 255
    1164:	5f 4f       	sbci	r21, 0xFF	; 255
    1166:	60 e0       	ldi	r22, 0x00	; 0
    1168:	82 e3       	ldi	r24, 0x32	; 50
    116a:	0e 94 6a 09 	call	0x12d4	; 0x12d4 <USI_TWI_Write_Data>
    116e:	be 01       	movw	r22, r28
    1170:	6f 5f       	subi	r22, 0xFF	; 255
    1172:	7f 4f       	sbci	r23, 0xFF	; 255
    1174:	ce 01       	movw	r24, r28
    1176:	48 96       	adiw	r24, 0x18	; 24
    1178:	0e 94 c2 04 	call	0x984	; 0x984 <rx8900_time_regs_to_count>
    117c:	be 01       	movw	r22, r28
    117e:	67 5f       	subi	r22, 0xF7	; 247
    1180:	7f 4f       	sbci	r23, 0xFF	; 255
    1182:	ce 01       	movw	r24, r28
    1184:	41 96       	adiw	r24, 0x11	; 17
    1186:	0e 94 c2 04 	call	0x984	; 0x984 <rx8900_time_regs_to_count>
    118a:	e9 89       	ldd	r30, Y+17	; 0x11
    118c:	88 8d       	ldd	r24, Y+24	; 0x18
    118e:	8e 17       	cp	r24, r30
    1190:	20 f4       	brcc	.+8      	; 0x119a <main+0x30c>
    1192:	84 5c       	subi	r24, 0xC4	; 196
    1194:	88 8f       	std	Y+24, r24	; 0x18
    1196:	41 e0       	ldi	r20, 0x01	; 1
    1198:	01 c0       	rjmp	.+2      	; 0x119c <main+0x30e>
    119a:	40 e0       	ldi	r20, 0x00	; 0
    119c:	08 8d       	ldd	r16, Y+24	; 0x18
    119e:	fa 89       	ldd	r31, Y+18	; 0x12
    11a0:	89 8d       	ldd	r24, Y+25	; 0x19
    11a2:	24 2f       	mov	r18, r20
    11a4:	30 e0       	ldi	r19, 0x00	; 0
    11a6:	2f 0f       	add	r18, r31
    11a8:	31 1d       	adc	r19, r1
    11aa:	68 2f       	mov	r22, r24
    11ac:	70 e0       	ldi	r23, 0x00	; 0
    11ae:	62 17       	cp	r22, r18
    11b0:	73 07       	cpc	r23, r19
    11b2:	24 f4       	brge	.+8      	; 0x11bc <main+0x32e>
    11b4:	84 5c       	subi	r24, 0xC4	; 196
    11b6:	89 8f       	std	Y+25, r24	; 0x19
    11b8:	31 e0       	ldi	r19, 0x01	; 1
    11ba:	01 c0       	rjmp	.+2      	; 0x11be <main+0x330>
    11bc:	30 e0       	ldi	r19, 0x00	; 0
    11be:	29 8d       	ldd	r18, Y+25	; 0x19
    11c0:	5b 89       	ldd	r21, Y+19	; 0x13
    11c2:	8a 8d       	ldd	r24, Y+26	; 0x1a
    11c4:	63 2f       	mov	r22, r19
    11c6:	70 e0       	ldi	r23, 0x00	; 0
    11c8:	65 0f       	add	r22, r21
    11ca:	71 1d       	adc	r23, r1
    11cc:	a8 2f       	mov	r26, r24
    11ce:	b0 e0       	ldi	r27, 0x00	; 0
    11d0:	a6 17       	cp	r26, r22
    11d2:	b7 07       	cpc	r27, r23
    11d4:	24 f4       	brge	.+8      	; 0x11de <main+0x350>
    11d6:	88 5e       	subi	r24, 0xE8	; 232
    11d8:	8a 8f       	std	Y+26, r24	; 0x1a
    11da:	81 e0       	ldi	r24, 0x01	; 1
    11dc:	01 c0       	rjmp	.+2      	; 0x11e0 <main+0x352>
    11de:	80 e0       	ldi	r24, 0x00	; 0
    11e0:	cc 88       	ldd	r12, Y+20	; 0x14
    11e2:	dd 88       	ldd	r13, Y+21	; 0x15
    11e4:	ee 88       	ldd	r14, Y+22	; 0x16
    11e6:	ff 88       	ldd	r15, Y+23	; 0x17
    11e8:	c8 0e       	add	r12, r24
    11ea:	d1 1c       	adc	r13, r1
    11ec:	e1 1c       	adc	r14, r1
    11ee:	f1 1c       	adc	r15, r1
    11f0:	8b 8d       	ldd	r24, Y+27	; 0x1b
    11f2:	9c 8d       	ldd	r25, Y+28	; 0x1c
    11f4:	ad 8d       	ldd	r26, Y+29	; 0x1d
    11f6:	be 8d       	ldd	r27, Y+30	; 0x1e
    11f8:	8c 15       	cp	r24, r12
    11fa:	9d 05       	cpc	r25, r13
    11fc:	ae 05       	cpc	r26, r14
    11fe:	bf 05       	cpc	r27, r15
    1200:	80 f0       	brcs	.+32     	; 0x1222 <main+0x394>
    1202:	0e 1b       	sub	r16, r30
    1204:	2f 1b       	sub	r18, r31
    1206:	24 1b       	sub	r18, r20
    1208:	4a 8d       	ldd	r20, Y+26	; 0x1a
    120a:	45 1b       	sub	r20, r21
    120c:	43 1b       	sub	r20, r19
    120e:	bc 01       	movw	r22, r24
    1210:	cd 01       	movw	r24, r26
    1212:	6c 19       	sub	r22, r12
    1214:	7d 09       	sbc	r23, r13
    1216:	8e 09       	sbc	r24, r14
    1218:	9f 09       	sbc	r25, r15
    121a:	0e 94 f8 05 	call	0xbf0	; 0xbf0 <run>
    121e:	0e 94 95 05 	call	0xb2a	; 0xb2a <longNowMode>
    1222:	85 e0       	ldi	r24, 0x05	; 5
    1224:	cc ce       	rjmp	.-616    	; 0xfbe <main+0x130>

00001226 <USI_TWI_Write_Byte>:
    1226:	28 e0       	ldi	r18, 0x08	; 8
    1228:	30 e0       	ldi	r19, 0x00	; 0
    122a:	90 e8       	ldi	r25, 0x80	; 128
    122c:	61 e0       	ldi	r22, 0x01	; 1
    122e:	52 e0       	ldi	r21, 0x02	; 2
    1230:	48 2f       	mov	r20, r24
    1232:	49 23       	and	r20, r25
    1234:	19 f0       	breq	.+6      	; 0x123c <USI_TWI_Write_Byte+0x16>
    1236:	60 93 42 06 	sts	0x0642, r22	; 0x800642 <__TEXT_REGION_LENGTH__+0x700642>
    123a:	02 c0       	rjmp	.+4      	; 0x1240 <USI_TWI_Write_Byte+0x1a>
    123c:	60 93 41 06 	sts	0x0641, r22	; 0x800641 <__TEXT_REGION_LENGTH__+0x700641>
    1240:	00 c0       	rjmp	.+0      	; 0x1242 <USI_TWI_Write_Byte+0x1c>
    1242:	00 c0       	rjmp	.+0      	; 0x1244 <USI_TWI_Write_Byte+0x1e>
    1244:	00 00       	nop
    1246:	42 e0       	ldi	r20, 0x02	; 2
    1248:	50 93 42 06 	sts	0x0642, r21	; 0x800642 <__TEXT_REGION_LENGTH__+0x700642>
    124c:	00 c0       	rjmp	.+0      	; 0x124e <USI_TWI_Write_Byte+0x28>
    124e:	00 c0       	rjmp	.+0      	; 0x1250 <USI_TWI_Write_Byte+0x2a>
    1250:	00 00       	nop
    1252:	50 93 41 06 	sts	0x0641, r21	; 0x800641 <__TEXT_REGION_LENGTH__+0x700641>
    1256:	96 95       	lsr	r25
    1258:	21 50       	subi	r18, 0x01	; 1
    125a:	31 09       	sbc	r19, r1
    125c:	49 f7       	brne	.-46     	; 0x1230 <USI_TWI_Write_Byte+0xa>
    125e:	81 e0       	ldi	r24, 0x01	; 1
    1260:	80 93 42 06 	sts	0x0642, r24	; 0x800642 <__TEXT_REGION_LENGTH__+0x700642>
    1264:	00 c0       	rjmp	.+0      	; 0x1266 <USI_TWI_Write_Byte+0x40>
    1266:	00 c0       	rjmp	.+0      	; 0x1268 <USI_TWI_Write_Byte+0x42>
    1268:	00 00       	nop
    126a:	40 93 42 06 	sts	0x0642, r20	; 0x800642 <__TEXT_REGION_LENGTH__+0x700642>
    126e:	00 c0       	rjmp	.+0      	; 0x1270 <USI_TWI_Write_Byte+0x4a>
    1270:	00 c0       	rjmp	.+0      	; 0x1272 <USI_TWI_Write_Byte+0x4c>
    1272:	00 00       	nop
    1274:	80 91 48 06 	lds	r24, 0x0648	; 0x800648 <__TEXT_REGION_LENGTH__+0x700648>
    1278:	40 93 41 06 	sts	0x0641, r20	; 0x800641 <__TEXT_REGION_LENGTH__+0x700641>
    127c:	00 c0       	rjmp	.+0      	; 0x127e <USI_TWI_Write_Byte+0x58>
    127e:	00 c0       	rjmp	.+0      	; 0x1280 <USI_TWI_Write_Byte+0x5a>
    1280:	00 00       	nop
    1282:	81 70       	andi	r24, 0x01	; 1
    1284:	08 95       	ret

00001286 <USI_TWI_Start>:
    1286:	00 c0       	rjmp	.+0      	; 0x1288 <USI_TWI_Start+0x2>
    1288:	00 c0       	rjmp	.+0      	; 0x128a <USI_TWI_Start+0x4>
    128a:	00 00       	nop
    128c:	e0 e4       	ldi	r30, 0x40	; 64
    128e:	f6 e0       	ldi	r31, 0x06	; 6
    1290:	91 e0       	ldi	r25, 0x01	; 1
    1292:	91 83       	std	Z+1, r25	; 0x01
    1294:	00 c0       	rjmp	.+0      	; 0x1296 <USI_TWI_Start+0x10>
    1296:	00 c0       	rjmp	.+0      	; 0x1298 <USI_TWI_Start+0x12>
    1298:	00 00       	nop
    129a:	92 e0       	ldi	r25, 0x02	; 2
    129c:	91 83       	std	Z+1, r25	; 0x01
    129e:	88 0f       	add	r24, r24
    12a0:	86 2b       	or	r24, r22
    12a2:	0c 94 13 09 	jmp	0x1226	; 0x1226 <USI_TWI_Write_Byte>

000012a6 <USI_TWI_Stop>:
    12a6:	e0 e4       	ldi	r30, 0x40	; 64
    12a8:	f6 e0       	ldi	r31, 0x06	; 6
    12aa:	81 e0       	ldi	r24, 0x01	; 1
    12ac:	81 83       	std	Z+1, r24	; 0x01
    12ae:	00 c0       	rjmp	.+0      	; 0x12b0 <USI_TWI_Stop+0xa>
    12b0:	00 c0       	rjmp	.+0      	; 0x12b2 <USI_TWI_Stop+0xc>
    12b2:	00 00       	nop
    12b4:	92 e0       	ldi	r25, 0x02	; 2
    12b6:	92 83       	std	Z+2, r25	; 0x02
    12b8:	00 c0       	rjmp	.+0      	; 0x12ba <USI_TWI_Stop+0x14>
    12ba:	00 c0       	rjmp	.+0      	; 0x12bc <USI_TWI_Stop+0x16>
    12bc:	00 00       	nop
    12be:	82 83       	std	Z+2, r24	; 0x02
    12c0:	00 c0       	rjmp	.+0      	; 0x12c2 <USI_TWI_Stop+0x1c>
    12c2:	00 c0       	rjmp	.+0      	; 0x12c4 <USI_TWI_Stop+0x1e>
    12c4:	00 00       	nop
    12c6:	08 95       	ret

000012c8 <USI_TWI_Master_Initialise>:
    12c8:	e0 e4       	ldi	r30, 0x40	; 64
    12ca:	f6 e0       	ldi	r31, 0x06	; 6
    12cc:	88 e1       	ldi	r24, 0x18	; 24
    12ce:	80 8b       	std	Z+16, r24	; 0x10
    12d0:	81 8b       	std	Z+17, r24	; 0x11
    12d2:	08 95       	ret

000012d4 <USI_TWI_Write_Data>:
    12d4:	0f 93       	push	r16
    12d6:	1f 93       	push	r17
    12d8:	cf 93       	push	r28
    12da:	df 93       	push	r29
    12dc:	d6 2f       	mov	r29, r22
    12de:	8a 01       	movw	r16, r20
    12e0:	c2 2f       	mov	r28, r18
    12e2:	60 e0       	ldi	r22, 0x00	; 0
    12e4:	0e 94 43 09 	call	0x1286	; 0x1286 <USI_TWI_Start>
    12e8:	8d 2f       	mov	r24, r29
    12ea:	0e 94 13 09 	call	0x1226	; 0x1226 <USI_TWI_Write_Byte>
    12ee:	cc 23       	and	r28, r28
    12f0:	39 f0       	breq	.+14     	; 0x1300 <USI_TWI_Write_Data+0x2c>
    12f2:	f8 01       	movw	r30, r16
    12f4:	81 91       	ld	r24, Z+
    12f6:	8f 01       	movw	r16, r30
    12f8:	0e 94 13 09 	call	0x1226	; 0x1226 <USI_TWI_Write_Byte>
    12fc:	c1 50       	subi	r28, 0x01	; 1
    12fe:	f7 cf       	rjmp	.-18     	; 0x12ee <USI_TWI_Write_Data+0x1a>
    1300:	0e 94 53 09 	call	0x12a6	; 0x12a6 <USI_TWI_Stop>
    1304:	80 e0       	ldi	r24, 0x00	; 0
    1306:	df 91       	pop	r29
    1308:	cf 91       	pop	r28
    130a:	1f 91       	pop	r17
    130c:	0f 91       	pop	r16
    130e:	08 95       	ret

00001310 <USI_TWI_Read_Data>:
    1310:	ff 92       	push	r15
    1312:	0f 93       	push	r16
    1314:	1f 93       	push	r17
    1316:	cf 93       	push	r28
    1318:	df 93       	push	r29
    131a:	d8 2f       	mov	r29, r24
    131c:	f6 2e       	mov	r15, r22
    131e:	8a 01       	movw	r16, r20
    1320:	c2 2f       	mov	r28, r18
    1322:	60 e0       	ldi	r22, 0x00	; 0
    1324:	0e 94 43 09 	call	0x1286	; 0x1286 <USI_TWI_Start>
    1328:	8f 2d       	mov	r24, r15
    132a:	0e 94 13 09 	call	0x1226	; 0x1226 <USI_TWI_Write_Byte>
    132e:	82 e0       	ldi	r24, 0x02	; 2
    1330:	80 93 42 06 	sts	0x0642, r24	; 0x800642 <__TEXT_REGION_LENGTH__+0x700642>
    1334:	00 c0       	rjmp	.+0      	; 0x1336 <USI_TWI_Read_Data+0x26>
    1336:	00 c0       	rjmp	.+0      	; 0x1338 <USI_TWI_Read_Data+0x28>
    1338:	00 00       	nop
    133a:	61 e0       	ldi	r22, 0x01	; 1
    133c:	8d 2f       	mov	r24, r29
    133e:	0e 94 43 09 	call	0x1286	; 0x1286 <USI_TWI_Start>
    1342:	42 e0       	ldi	r20, 0x02	; 2
    1344:	52 e0       	ldi	r21, 0x02	; 2
    1346:	61 e0       	ldi	r22, 0x01	; 1
    1348:	cc 23       	and	r28, r28
    134a:	81 f1       	breq	.+96     	; 0x13ac <USI_TWI_Read_Data+0x9c>
    134c:	28 e0       	ldi	r18, 0x08	; 8
    134e:	30 e0       	ldi	r19, 0x00	; 0
    1350:	90 e8       	ldi	r25, 0x80	; 128
    1352:	80 e0       	ldi	r24, 0x00	; 0
    1354:	40 93 42 06 	sts	0x0642, r20	; 0x800642 <__TEXT_REGION_LENGTH__+0x700642>
    1358:	00 c0       	rjmp	.+0      	; 0x135a <USI_TWI_Read_Data+0x4a>
    135a:	00 c0       	rjmp	.+0      	; 0x135c <USI_TWI_Read_Data+0x4c>
    135c:	00 00       	nop
    135e:	70 91 48 06 	lds	r23, 0x0648	; 0x800648 <__TEXT_REGION_LENGTH__+0x700648>
    1362:	70 fd       	sbrc	r23, 0
    1364:	89 2b       	or	r24, r25
    1366:	40 93 41 06 	sts	0x0641, r20	; 0x800641 <__TEXT_REGION_LENGTH__+0x700641>
    136a:	00 c0       	rjmp	.+0      	; 0x136c <USI_TWI_Read_Data+0x5c>
    136c:	00 c0       	rjmp	.+0      	; 0x136e <USI_TWI_Read_Data+0x5e>
    136e:	00 00       	nop
    1370:	96 95       	lsr	r25
    1372:	21 50       	subi	r18, 0x01	; 1
    1374:	31 09       	sbc	r19, r1
    1376:	71 f7       	brne	.-36     	; 0x1354 <USI_TWI_Read_Data+0x44>
    1378:	f8 01       	movw	r30, r16
    137a:	81 93       	st	Z+, r24
    137c:	8f 01       	movw	r16, r30
    137e:	c1 50       	subi	r28, 0x01	; 1
    1380:	a9 f0       	breq	.+42     	; 0x13ac <USI_TWI_Read_Data+0x9c>
    1382:	60 93 41 06 	sts	0x0641, r22	; 0x800641 <__TEXT_REGION_LENGTH__+0x700641>
    1386:	00 c0       	rjmp	.+0      	; 0x1388 <USI_TWI_Read_Data+0x78>
    1388:	00 c0       	rjmp	.+0      	; 0x138a <USI_TWI_Read_Data+0x7a>
    138a:	00 00       	nop
    138c:	50 93 42 06 	sts	0x0642, r21	; 0x800642 <__TEXT_REGION_LENGTH__+0x700642>
    1390:	00 c0       	rjmp	.+0      	; 0x1392 <USI_TWI_Read_Data+0x82>
    1392:	00 c0       	rjmp	.+0      	; 0x1394 <USI_TWI_Read_Data+0x84>
    1394:	00 00       	nop
    1396:	50 93 41 06 	sts	0x0641, r21	; 0x800641 <__TEXT_REGION_LENGTH__+0x700641>
    139a:	00 c0       	rjmp	.+0      	; 0x139c <USI_TWI_Read_Data+0x8c>
    139c:	00 c0       	rjmp	.+0      	; 0x139e <USI_TWI_Read_Data+0x8e>
    139e:	00 00       	nop
    13a0:	60 93 42 06 	sts	0x0642, r22	; 0x800642 <__TEXT_REGION_LENGTH__+0x700642>
    13a4:	00 c0       	rjmp	.+0      	; 0x13a6 <USI_TWI_Read_Data+0x96>
    13a6:	00 c0       	rjmp	.+0      	; 0x13a8 <USI_TWI_Read_Data+0x98>
    13a8:	00 00       	nop
    13aa:	ce cf       	rjmp	.-100    	; 0x1348 <USI_TWI_Read_Data+0x38>
    13ac:	82 e0       	ldi	r24, 0x02	; 2
    13ae:	80 93 42 06 	sts	0x0642, r24	; 0x800642 <__TEXT_REGION_LENGTH__+0x700642>
    13b2:	00 c0       	rjmp	.+0      	; 0x13b4 <USI_TWI_Read_Data+0xa4>
    13b4:	00 c0       	rjmp	.+0      	; 0x13b6 <USI_TWI_Read_Data+0xa6>
    13b6:	00 00       	nop
    13b8:	80 93 41 06 	sts	0x0641, r24	; 0x800641 <__TEXT_REGION_LENGTH__+0x700641>
    13bc:	0e 94 53 09 	call	0x12a6	; 0x12a6 <USI_TWI_Stop>
    13c0:	80 e0       	ldi	r24, 0x00	; 0
    13c2:	df 91       	pop	r29
    13c4:	cf 91       	pop	r28
    13c6:	1f 91       	pop	r17
    13c8:	0f 91       	pop	r16
    13ca:	ff 90       	pop	r15
    13cc:	08 95       	ret

000013ce <__udivmodqi4>:
    13ce:	99 1b       	sub	r25, r25
    13d0:	79 e0       	ldi	r23, 0x09	; 9
    13d2:	04 c0       	rjmp	.+8      	; 0x13dc <__udivmodqi4_ep>

000013d4 <__udivmodqi4_loop>:
    13d4:	99 1f       	adc	r25, r25
    13d6:	96 17       	cp	r25, r22
    13d8:	08 f0       	brcs	.+2      	; 0x13dc <__udivmodqi4_ep>
    13da:	96 1b       	sub	r25, r22

000013dc <__udivmodqi4_ep>:
    13dc:	88 1f       	adc	r24, r24
    13de:	7a 95       	dec	r23
    13e0:	c9 f7       	brne	.-14     	; 0x13d4 <__udivmodqi4_loop>
    13e2:	80 95       	com	r24
    13e4:	08 95       	ret

000013e6 <__udivmodpsi4>:
    13e6:	59 e1       	ldi	r21, 0x19	; 25
    13e8:	aa 27       	eor	r26, r26
    13ea:	99 1b       	sub	r25, r25
    13ec:	0a c0       	rjmp	.+20     	; 0x1402 <__udivmodpsi4_start>

000013ee <__udivmodpsi4_loop>:
    13ee:	11 1c       	adc	r1, r1
    13f0:	aa 1f       	adc	r26, r26
    13f2:	99 1f       	adc	r25, r25
    13f4:	12 16       	cp	r1, r18
    13f6:	a3 07       	cpc	r26, r19
    13f8:	94 07       	cpc	r25, r20
    13fa:	18 f0       	brcs	.+6      	; 0x1402 <__udivmodpsi4_start>
    13fc:	12 1a       	sub	r1, r18
    13fe:	a3 0b       	sbc	r26, r19
    1400:	94 0b       	sbc	r25, r20

00001402 <__udivmodpsi4_start>:
    1402:	66 1f       	adc	r22, r22
    1404:	77 1f       	adc	r23, r23
    1406:	88 1f       	adc	r24, r24
    1408:	5a 95       	dec	r21
    140a:	89 f7       	brne	.-30     	; 0x13ee <__udivmodpsi4_loop>
    140c:	60 95       	com	r22
    140e:	70 95       	com	r23
    1410:	80 95       	com	r24
    1412:	21 2d       	mov	r18, r1
    1414:	3a 2f       	mov	r19, r26
    1416:	49 2f       	mov	r20, r25
    1418:	11 24       	eor	r1, r1
    141a:	08 95       	ret

0000141c <__tablejump2__>:
    141c:	ee 0f       	add	r30, r30
    141e:	ff 1f       	adc	r31, r31
    1420:	88 1f       	adc	r24, r24
    1422:	8b bf       	out	0x3b, r24	; 59
    1424:	07 90       	elpm	r0, Z+
    1426:	f6 91       	elpm	r31, Z
    1428:	e0 2d       	mov	r30, r0
    142a:	19 94       	eijmp

0000142c <__umulhisi3>:
    142c:	a2 9f       	mul	r26, r18
    142e:	b0 01       	movw	r22, r0
    1430:	b3 9f       	mul	r27, r19
    1432:	c0 01       	movw	r24, r0
    1434:	a3 9f       	mul	r26, r19
    1436:	70 0d       	add	r23, r0
    1438:	81 1d       	adc	r24, r1
    143a:	11 24       	eor	r1, r1
    143c:	91 1d       	adc	r25, r1
    143e:	b2 9f       	mul	r27, r18
    1440:	70 0d       	add	r23, r0
    1442:	81 1d       	adc	r24, r1
    1444:	11 24       	eor	r1, r1
    1446:	91 1d       	adc	r25, r1
    1448:	08 95       	ret

0000144a <eeprom_write_block>:
    144a:	cf 92       	push	r12
    144c:	df 92       	push	r13
    144e:	ef 92       	push	r14
    1450:	ff 92       	push	r15
    1452:	0f 93       	push	r16
    1454:	1f 93       	push	r17
    1456:	cf 93       	push	r28
    1458:	df 93       	push	r29
    145a:	20 91 cc 01 	lds	r18, 0x01CC	; 0x8001cc <__TEXT_REGION_LENGTH__+0x7001cc>
    145e:	28 60       	ori	r18, 0x08	; 8
    1460:	20 93 cc 01 	sts	0x01CC, r18	; 0x8001cc <__TEXT_REGION_LENGTH__+0x7001cc>
    1464:	c0 e2       	ldi	r28, 0x20	; 32
    1466:	0f ef       	ldi	r16, 0xFF	; 255
    1468:	17 e0       	ldi	r17, 0x07	; 7
    146a:	d5 e3       	ldi	r29, 0x35	; 53
    146c:	ff 24       	eor	r15, r15
    146e:	f3 94       	inc	r15
    1470:	41 15       	cp	r20, r1
    1472:	51 05       	cpc	r21, r1
    1474:	c1 f1       	breq	.+112    	; 0x14e6 <eeprom_write_block+0x9c>
    1476:	26 2f       	mov	r18, r22
    1478:	2f 71       	andi	r18, 0x1F	; 31
    147a:	3c 2f       	mov	r19, r28
    147c:	32 1b       	sub	r19, r18
    147e:	23 2f       	mov	r18, r19
    1480:	30 e0       	ldi	r19, 0x00	; 0
    1482:	42 17       	cp	r20, r18
    1484:	53 07       	cpc	r21, r19
    1486:	08 f4       	brcc	.+2      	; 0x148a <eeprom_write_block+0x40>
    1488:	9a 01       	movw	r18, r20
    148a:	d2 2e       	mov	r13, r18
    148c:	f8 01       	movw	r30, r16
    148e:	e2 1b       	sub	r30, r18
    1490:	f3 0b       	sbc	r31, r19
    1492:	e6 17       	cp	r30, r22
    1494:	f7 07       	cpc	r31, r23
    1496:	10 f4       	brcc	.+4      	; 0x149c <eeprom_write_block+0x52>
    1498:	0e 94 c0 0a 	call	0x1580	; 0x1580 <abort>
    149c:	e0 91 cf 01 	lds	r30, 0x01CF	; 0x8001cf <__TEXT_REGION_LENGTH__+0x7001cf>
    14a0:	e7 fd       	sbrc	r30, 7
    14a2:	fc cf       	rjmp	.-8      	; 0x149c <eeprom_write_block+0x52>
    14a4:	c8 2e       	mov	r12, r24
    14a6:	db 01       	movw	r26, r22
    14a8:	b0 5f       	subi	r27, 0xF0	; 240
    14aa:	fc 01       	movw	r30, r24
    14ac:	e0 90 cf 01 	lds	r14, 0x01CF	; 0x8001cf <__TEXT_REGION_LENGTH__+0x7001cf>
    14b0:	e7 fc       	sbrc	r14, 7
    14b2:	fc cf       	rjmp	.-8      	; 0x14ac <eeprom_write_block+0x62>
    14b4:	e1 90       	ld	r14, Z+
    14b6:	ed 92       	st	X+, r14
    14b8:	ee 2e       	mov	r14, r30
    14ba:	ec 18       	sub	r14, r12
    14bc:	ed 14       	cp	r14, r13
    14be:	b0 f3       	brcs	.-20     	; 0x14ac <eeprom_write_block+0x62>
    14c0:	10 92 c2 01 	sts	0x01C2, r1	; 0x8001c2 <__TEXT_REGION_LENGTH__+0x7001c2>
    14c4:	70 93 c1 01 	sts	0x01C1, r23	; 0x8001c1 <__TEXT_REGION_LENGTH__+0x7001c1>
    14c8:	60 93 c0 01 	sts	0x01C0, r22	; 0x8001c0 <__TEXT_REGION_LENGTH__+0x7001c0>
    14cc:	d0 93 ca 01 	sts	0x01CA, r29	; 0x8001ca <__TEXT_REGION_LENGTH__+0x7001ca>
    14d0:	e8 ed       	ldi	r30, 0xD8	; 216
    14d2:	e4 bf       	out	0x34, r30	; 52
    14d4:	f0 92 cb 01 	sts	0x01CB, r15	; 0x8001cb <__TEXT_REGION_LENGTH__+0x7001cb>
    14d8:	82 0f       	add	r24, r18
    14da:	93 1f       	adc	r25, r19
    14dc:	62 0f       	add	r22, r18
    14de:	73 1f       	adc	r23, r19
    14e0:	42 1b       	sub	r20, r18
    14e2:	53 0b       	sbc	r21, r19
    14e4:	c5 cf       	rjmp	.-118    	; 0x1470 <eeprom_write_block+0x26>
    14e6:	80 91 cc 01 	lds	r24, 0x01CC	; 0x8001cc <__TEXT_REGION_LENGTH__+0x7001cc>
    14ea:	87 7f       	andi	r24, 0xF7	; 247
    14ec:	80 93 cc 01 	sts	0x01CC, r24	; 0x8001cc <__TEXT_REGION_LENGTH__+0x7001cc>
    14f0:	df 91       	pop	r29
    14f2:	cf 91       	pop	r28
    14f4:	1f 91       	pop	r17
    14f6:	0f 91       	pop	r16
    14f8:	ff 90       	pop	r15
    14fa:	ef 90       	pop	r14
    14fc:	df 90       	pop	r13
    14fe:	cf 90       	pop	r12
    1500:	08 95       	ret

00001502 <eeprom_read_block>:
    1502:	e0 ec       	ldi	r30, 0xC0	; 192
    1504:	f1 e0       	ldi	r31, 0x01	; 1
    1506:	a7 85       	ldd	r26, Z+15	; 0x0f
    1508:	a7 fd       	sbrc	r26, 7
    150a:	fd cf       	rjmp	.-6      	; 0x1506 <eeprom_read_block+0x4>
    150c:	a4 85       	ldd	r26, Z+12	; 0x0c
    150e:	a8 60       	ori	r26, 0x08	; 8
    1510:	a4 87       	std	Z+12, r26	; 0x0c
    1512:	60 50       	subi	r22, 0x00	; 0
    1514:	70 4f       	sbci	r23, 0xF0	; 240
    1516:	0c 94 c5 0a 	jmp	0x158a	; 0x158a <memcpy>

0000151a <eeprom_read_byte>:
    151a:	03 d0       	rcall	.+6      	; 0x1522 <eeprom_mapen>
    151c:	80 81       	ld	r24, Z
    151e:	99 27       	eor	r25, r25
    1520:	08 95       	ret

00001522 <eeprom_mapen>:
    1522:	e0 ec       	ldi	r30, 0xC0	; 192
    1524:	f1 e0       	ldi	r31, 0x01	; 1
    1526:	37 85       	ldd	r19, Z+15	; 0x0f
    1528:	37 fd       	sbrc	r19, 7
    152a:	fd cf       	rjmp	.-6      	; 0x1526 <eeprom_mapen+0x4>
    152c:	34 85       	ldd	r19, Z+12	; 0x0c
    152e:	38 60       	ori	r19, 0x08	; 8
    1530:	34 87       	std	Z+12, r19	; 0x0c
    1532:	fc 01       	movw	r30, r24
    1534:	e0 50       	subi	r30, 0x00	; 0
    1536:	f0 4f       	sbci	r31, 0xF0	; 240
    1538:	08 95       	ret

0000153a <eeprom_write_byte>:
    153a:	26 2f       	mov	r18, r22

0000153c <eeprom_write_r18>:
    153c:	e0 ec       	ldi	r30, 0xC0	; 192
    153e:	f1 e0       	ldi	r31, 0x01	; 1
    1540:	37 85       	ldd	r19, Z+15	; 0x0f
    1542:	37 fd       	sbrc	r19, 7
    1544:	fd cf       	rjmp	.-6      	; 0x1540 <eeprom_write_r18+0x4>
    1546:	34 85       	ldd	r19, Z+12	; 0x0c
    1548:	37 7f       	andi	r19, 0xF7	; 247
    154a:	34 87       	std	Z+12, r19	; 0x0c
    154c:	37 85       	ldd	r19, Z+15	; 0x0f
    154e:	31 ff       	sbrs	r19, 1
    1550:	09 c0       	rjmp	.+18     	; 0x1564 <eeprom_write_r18+0x28>
    1552:	36 e3       	ldi	r19, 0x36	; 54
    1554:	32 87       	std	Z+10, r19	; 0x0a
    1556:	38 ed       	ldi	r19, 0xD8	; 216
    1558:	34 bf       	out	0x34, r19	; 52
    155a:	31 e0       	ldi	r19, 0x01	; 1
    155c:	33 87       	std	Z+11, r19	; 0x0b
    155e:	37 85       	ldd	r19, Z+15	; 0x0f
    1560:	37 fd       	sbrc	r19, 7
    1562:	fd cf       	rjmp	.-6      	; 0x155e <eeprom_write_r18+0x22>
    1564:	33 e3       	ldi	r19, 0x33	; 51
    1566:	32 87       	std	Z+10, r19	; 0x0a
    1568:	80 83       	st	Z, r24
    156a:	91 83       	std	Z+1, r25	; 0x01
    156c:	12 82       	std	Z+2, r1	; 0x02
    156e:	24 83       	std	Z+4, r18	; 0x04
    1570:	25 e3       	ldi	r18, 0x35	; 53
    1572:	22 87       	std	Z+10, r18	; 0x0a
    1574:	28 ed       	ldi	r18, 0xD8	; 216
    1576:	31 e0       	ldi	r19, 0x01	; 1
    1578:	24 bf       	out	0x34, r18	; 52
    157a:	33 87       	std	Z+11, r19	; 0x0b
    157c:	01 96       	adiw	r24, 0x01	; 1
    157e:	08 95       	ret

00001580 <abort>:
    1580:	81 e0       	ldi	r24, 0x01	; 1
    1582:	90 e0       	ldi	r25, 0x00	; 0
    1584:	f8 94       	cli
    1586:	0c 94 ce 0a 	jmp	0x159c	; 0x159c <_exit>

0000158a <memcpy>:
    158a:	fb 01       	movw	r30, r22
    158c:	dc 01       	movw	r26, r24
    158e:	02 c0       	rjmp	.+4      	; 0x1594 <memcpy+0xa>
    1590:	01 90       	ld	r0, Z+
    1592:	0d 92       	st	X+, r0
    1594:	41 50       	subi	r20, 0x01	; 1
    1596:	50 40       	sbci	r21, 0x00	; 0
    1598:	d8 f7       	brcc	.-10     	; 0x1590 <memcpy+0x6>
    159a:	08 95       	ret

0000159c <_exit>:
    159c:	f8 94       	cli

0000159e <__stop_program>:
    159e:	ff cf       	rjmp	.-2      	; 0x159e <__stop_program>
